	.file	"\277\354\266\301.cpp"
	.text
.Ltext0:
	.cfi_sections	.debug_frame
	.section	.text$_Z6printfPKcz,"x"
	.linkonce discard
	.globl	_Z6printfPKcz
	.def	_Z6printfPKcz;	.scl	2;	.type	32;	.endef
	.seh_proc	_Z6printfPKcz
_Z6printfPKcz:
.LFB8:
	.file 1 "C:/Program Files/mingw-w64/x86_64-8.1.0-win32-seh-rt_v6-rev0/mingw64/x86_64-w64-mingw32/include/stdio.h"
	.loc 1 346 1
	.cfi_startproc
	pushq	%rbp
	.seh_pushreg	%rbp
	.cfi_def_cfa_offset 16
	.cfi_offset 6, -16
	pushq	%rbx
	.seh_pushreg	%rbx
	.cfi_def_cfa_offset 24
	.cfi_offset 3, -24
	subq	$56, %rsp
	.seh_stackalloc	56
	.cfi_def_cfa_offset 80
	leaq	128(%rsp), %rbp
	.seh_setframe	%rbp, 128
	.cfi_def_cfa 6, -48
	.seh_endprologue
	movq	%rcx, -48(%rbp)
	movq	%rdx, -40(%rbp)
	movq	%r8, -32(%rbp)
	movq	%r9, -24(%rbp)
	.loc 1 348 53
	leaq	-40(%rbp), %rax
	movq	%rax, -96(%rbp)
	.loc 1 349 30
	movq	-96(%rbp), %rbx
	movl	$1, %ecx
	movq	__imp___acrt_iob_func(%rip), %rax
	call	*%rax
.LVL0:
	movq	%rbx, %r8
	movq	-48(%rbp), %rdx
	movq	%rax, %rcx
	call	__mingw_vfprintf
	movl	%eax, -84(%rbp)
	.loc 1 351 10
	movl	-84(%rbp), %eax
	.loc 1 352 1
	addq	$56, %rsp
	popq	%rbx
	.cfi_restore 3
	popq	%rbp
	.cfi_restore 6
	.cfi_def_cfa 7, -40
	ret
	.cfi_endproc
.LFE8:
	.seh_endproc
	.section .rdata,"dr"
	.align 4
_ZL4maxn:
	.long	131072
	.globl	buffer
	.bss
	.align 32
buffer:
	.space 131072
	.globl	S
	.align 8
S:
	.space 8
	.globl	T
	.align 8
T:
	.space 8
	.text
	.globl	_Z8Get_Charv
	.def	_Z8Get_Charv;	.scl	2;	.type	32;	.endef
	.seh_proc	_Z8Get_Charv
_Z8Get_Charv:
.LFB44:
	.file 2 "../../code/code/\312\265\321\351\243\272\273\343\261\340/\277\354\266\301.cpp"
	.loc 2 9 1
	.cfi_startproc
	pushq	%rbp
	.seh_pushreg	%rbp
	.cfi_def_cfa_offset 16
	.cfi_offset 6, -16
	pushq	%rbx
	.seh_pushreg	%rbx
	.cfi_def_cfa_offset 24
	.cfi_offset 3, -24
	subq	$40, %rsp
	.seh_stackalloc	40
	.cfi_def_cfa_offset 64
	leaq	128(%rsp), %rbp
	.seh_setframe	%rbp, 128
	.cfi_def_cfa 6, -64
	.seh_endprologue
	.loc 2 10 8
	movq	S(%rip), %rdx
	movq	T(%rip), %rax
	.loc 2 10 2
	cmpq	%rax, %rdx
	jne	.L4
	.loc 2 12 10
	leaq	buffer(%rip), %rax
	movq	%rax, S(%rip)
	movq	S(%rip), %rbx
	.loc 2 12 27
	movl	$0, %ecx
	movq	__imp___acrt_iob_func(%rip), %rax
	call	*%rax
.LVL1:
	movq	%rax, %r9
	movl	$131072, %r8d
	movl	$1, %edx
	leaq	buffer(%rip), %rcx
	call	fread
	.loc 2 12 20
	addq	%rbx, %rax
	.loc 2 12 5
	movq	%rax, T(%rip)
	.loc 2 13 9
	movq	S(%rip), %rdx
	movq	T(%rip), %rax
	.loc 2 13 3
	cmpq	%rax, %rdx
	jne	.L4
	.loc 2 13 22 discriminator 1
	movl	$-1, %eax
	jmp	.L5
.L4:
	.loc 2 15 11
	movq	S(%rip), %rax
	leaq	1(%rax), %rdx
	movq	%rdx, S(%rip)
	movzbl	(%rax), %eax
.L5:
	.loc 2 16 1
	addq	$40, %rsp
	popq	%rbx
	.cfi_restore 3
	popq	%rbp
	.cfi_restore 6
	.cfi_def_cfa 7, -24
	ret
	.cfi_endproc
.LFE44:
	.seh_endproc
	.globl	_Z7Get_Intv
	.def	_Z7Get_Intv;	.scl	2;	.type	32;	.endef
	.seh_proc	_Z7Get_Intv
_Z7Get_Intv:
.LFB45:
	.loc 2 19 1
	.cfi_startproc
	pushq	%rbp
	.seh_pushreg	%rbp
	.cfi_def_cfa_offset 16
	.cfi_offset 6, -16
	movq	%rsp, %rbp
	.seh_setframe	%rbp, 0
	.cfi_def_cfa_register 6
	subq	$48, %rsp
	.seh_stackalloc	48
	.seh_endprologue
	.loc 2 21 6
	movl	$0, -8(%rbp)
	.loc 2 22 19
	call	_Z8Get_Charv
	movb	%al, -1(%rbp)
.L9:
	.loc 2 22 31 discriminator 5
	cmpb	$47, -1(%rbp)
	jle	.L7
	.loc 2 22 31 is_stmt 0 discriminator 2
	cmpb	$57, -1(%rbp)
	jle	.L8
.L7:
	.loc 2 22 55 is_stmt 1 discriminator 4
	call	_Z8Get_Charv
	movb	%al, -1(%rbp)
	.loc 2 22 2 discriminator 4
	jmp	.L9
.L8:
	.loc 2 24 18
	cmpb	$47, -1(%rbp)
	jle	.L10
	.loc 2 24 18 is_stmt 0 discriminator 1
	cmpb	$57, -1(%rbp)
	jg	.L10
	.loc 2 25 12 is_stmt 1
	movl	-8(%rbp), %eax
	leal	(%rax,%rax), %edx
	.loc 2 25 24
	movl	-8(%rbp), %eax
	sall	$3, %eax
	.loc 2 25 18
	addl	%eax, %edx
	.loc 2 25 35
	movsbl	-1(%rbp), %eax
	subl	$48, %eax
	.loc 2 25 6
	addl	%edx, %eax
	movl	%eax, -8(%rbp)
	.loc 2 25 55
	call	_Z8Get_Charv
	movb	%al, -1(%rbp)
	.loc 2 24 2
	jmp	.L8
.L10:
	.loc 2 26 9
	movl	-8(%rbp), %eax
	.loc 2 27 1
	addq	$48, %rsp
	popq	%rbp
	.cfi_restore 6
	.cfi_def_cfa 7, 8
	ret
	.cfi_endproc
.LFE45:
	.seh_endproc
	.def	__main;	.scl	2;	.type	32;	.endef
	.section .rdata,"dr"
.LC0:
	.ascii "%d\0"
	.text
	.globl	main
	.def	main;	.scl	2;	.type	32;	.endef
	.seh_proc	main
main:
.LFB46:
	.loc 2 30 1
	.cfi_startproc
	pushq	%rbp
	.seh_pushreg	%rbp
	.cfi_def_cfa_offset 16
	.cfi_offset 6, -16
	movq	%rsp, %rbp
	.seh_setframe	%rbp, 0
	.cfi_def_cfa_register 6
	subq	$48, %rsp
	.seh_stackalloc	48
	.seh_endprologue
	.loc 2 30 1
	call	__main
.LVL2:
	.loc 2 31 17
	call	_Z7Get_Intv
	movl	%eax, -4(%rbp)
	.loc 2 32 8
	movl	-4(%rbp), %eax
	movl	%eax, %edx
	leaq	.LC0(%rip), %rcx
	call	_Z6printfPKcz
	.loc 2 33 9
	movl	$0, %eax
	.loc 2 34 1
	addq	$48, %rsp
	popq	%rbp
	.cfi_restore 6
	.cfi_def_cfa 7, 8
	ret
	.cfi_endproc
.LFE46:
	.seh_endproc
.Letext0:
	.file 3 "C:/Program Files/mingw-w64/x86_64-8.1.0-win32-seh-rt_v6-rev0/mingw64/lib/gcc/x86_64-w64-mingw32/8.1.0/include/c++/cstdio"
	.file 4 "C:/Program Files/mingw-w64/x86_64-8.1.0-win32-seh-rt_v6-rev0/mingw64/lib/gcc/x86_64-w64-mingw32/8.1.0/include/c++/x86_64-w64-mingw32/bits/c++config.h"
	.file 5 "C:/Program Files/mingw-w64/x86_64-8.1.0-win32-seh-rt_v6-rev0/mingw64/x86_64-w64-mingw32/include/crtdefs.h"
	.file 6 "<built-in>"