   1              		.file	"\277\354\266\301.cpp"
   2              		.text
   3              	.Ltext0:
   4              		.cfi_sections	.debug_frame
   5              		.section	.text$_Z6printfPKcz,"x"
   6              		.linkonce discard
   7              		.globl	_Z6printfPKcz
   9              		.seh_proc	_Z6printfPKcz
  10              	_Z6printfPKcz:
  11              	.LFB8:
  12              		.file 1 "C:/Program Files/mingw-w64/x86_64-8.1.0-win32-seh-rt_v6-rev0/mingw64/x86_64-w64-mingw32/i
   1:C:/Program Files/mingw-w64/x86_64-8.1.0-win32-seh-rt_v6-rev0/mingw64/x86_64-w64-mingw32/include\stdio.h **** /**
   2:C:/Program Files/mingw-w64/x86_64-8.1.0-win32-seh-rt_v6-rev0/mingw64/x86_64-w64-mingw32/include\stdio.h ****  * This file has no copyright assigned and is placed in the Public Domain.
   3:C:/Program Files/mingw-w64/x86_64-8.1.0-win32-seh-rt_v6-rev0/mingw64/x86_64-w64-mingw32/include\stdio.h ****  * This file is part of the mingw-w64 runtime package.
   4:C:/Program Files/mingw-w64/x86_64-8.1.0-win32-seh-rt_v6-rev0/mingw64/x86_64-w64-mingw32/include\stdio.h ****  * No warranty is given; refer to the file DISCLAIMER.PD within this package.
   5:C:/Program Files/mingw-w64/x86_64-8.1.0-win32-seh-rt_v6-rev0/mingw64/x86_64-w64-mingw32/include\stdio.h ****  */
   6:C:/Program Files/mingw-w64/x86_64-8.1.0-win32-seh-rt_v6-rev0/mingw64/x86_64-w64-mingw32/include\stdio.h **** #ifndef _INC_STDIO
   7:C:/Program Files/mingw-w64/x86_64-8.1.0-win32-seh-rt_v6-rev0/mingw64/x86_64-w64-mingw32/include\stdio.h **** #define _INC_STDIO
   8:C:/Program Files/mingw-w64/x86_64-8.1.0-win32-seh-rt_v6-rev0/mingw64/x86_64-w64-mingw32/include\stdio.h **** 
   9:C:/Program Files/mingw-w64/x86_64-8.1.0-win32-seh-rt_v6-rev0/mingw64/x86_64-w64-mingw32/include\stdio.h **** #include <crtdefs.h>
  10:C:/Program Files/mingw-w64/x86_64-8.1.0-win32-seh-rt_v6-rev0/mingw64/x86_64-w64-mingw32/include\stdio.h **** 
  11:C:/Program Files/mingw-w64/x86_64-8.1.0-win32-seh-rt_v6-rev0/mingw64/x86_64-w64-mingw32/include\stdio.h **** #include <_mingw_print_push.h>
  12:C:/Program Files/mingw-w64/x86_64-8.1.0-win32-seh-rt_v6-rev0/mingw64/x86_64-w64-mingw32/include\stdio.h **** 
  13:C:/Program Files/mingw-w64/x86_64-8.1.0-win32-seh-rt_v6-rev0/mingw64/x86_64-w64-mingw32/include\stdio.h **** #pragma pack(push,_CRT_PACKING)
  14:C:/Program Files/mingw-w64/x86_64-8.1.0-win32-seh-rt_v6-rev0/mingw64/x86_64-w64-mingw32/include\stdio.h **** 
  15:C:/Program Files/mingw-w64/x86_64-8.1.0-win32-seh-rt_v6-rev0/mingw64/x86_64-w64-mingw32/include\stdio.h **** #ifdef __cplusplus
  16:C:/Program Files/mingw-w64/x86_64-8.1.0-win32-seh-rt_v6-rev0/mingw64/x86_64-w64-mingw32/include\stdio.h **** extern "C" {
  17:C:/Program Files/mingw-w64/x86_64-8.1.0-win32-seh-rt_v6-rev0/mingw64/x86_64-w64-mingw32/include\stdio.h **** #endif
  18:C:/Program Files/mingw-w64/x86_64-8.1.0-win32-seh-rt_v6-rev0/mingw64/x86_64-w64-mingw32/include\stdio.h **** 
  19:C:/Program Files/mingw-w64/x86_64-8.1.0-win32-seh-rt_v6-rev0/mingw64/x86_64-w64-mingw32/include\stdio.h **** #define BUFSIZ 512
  20:C:/Program Files/mingw-w64/x86_64-8.1.0-win32-seh-rt_v6-rev0/mingw64/x86_64-w64-mingw32/include\stdio.h **** #define _NFILE _NSTREAM_
  21:C:/Program Files/mingw-w64/x86_64-8.1.0-win32-seh-rt_v6-rev0/mingw64/x86_64-w64-mingw32/include\stdio.h **** #define _NSTREAM_ 512
  22:C:/Program Files/mingw-w64/x86_64-8.1.0-win32-seh-rt_v6-rev0/mingw64/x86_64-w64-mingw32/include\stdio.h **** #define _IOB_ENTRIES 20
  23:C:/Program Files/mingw-w64/x86_64-8.1.0-win32-seh-rt_v6-rev0/mingw64/x86_64-w64-mingw32/include\stdio.h **** #define EOF (-1)
  24:C:/Program Files/mingw-w64/x86_64-8.1.0-win32-seh-rt_v6-rev0/mingw64/x86_64-w64-mingw32/include\stdio.h **** 
  25:C:/Program Files/mingw-w64/x86_64-8.1.0-win32-seh-rt_v6-rev0/mingw64/x86_64-w64-mingw32/include\stdio.h **** #ifndef _FILE_DEFINED
  26:C:/Program Files/mingw-w64/x86_64-8.1.0-win32-seh-rt_v6-rev0/mingw64/x86_64-w64-mingw32/include\stdio.h ****   struct _iobuf {
  27:C:/Program Files/mingw-w64/x86_64-8.1.0-win32-seh-rt_v6-rev0/mingw64/x86_64-w64-mingw32/include\stdio.h ****     char *_ptr;
  28:C:/Program Files/mingw-w64/x86_64-8.1.0-win32-seh-rt_v6-rev0/mingw64/x86_64-w64-mingw32/include\stdio.h ****     int _cnt;
  29:C:/Program Files/mingw-w64/x86_64-8.1.0-win32-seh-rt_v6-rev0/mingw64/x86_64-w64-mingw32/include\stdio.h ****     char *_base;
  30:C:/Program Files/mingw-w64/x86_64-8.1.0-win32-seh-rt_v6-rev0/mingw64/x86_64-w64-mingw32/include\stdio.h ****     int _flag;
  31:C:/Program Files/mingw-w64/x86_64-8.1.0-win32-seh-rt_v6-rev0/mingw64/x86_64-w64-mingw32/include\stdio.h ****     int _file;
  32:C:/Program Files/mingw-w64/x86_64-8.1.0-win32-seh-rt_v6-rev0/mingw64/x86_64-w64-mingw32/include\stdio.h ****     int _charbuf;
  33:C:/Program Files/mingw-w64/x86_64-8.1.0-win32-seh-rt_v6-rev0/mingw64/x86_64-w64-mingw32/include\stdio.h ****     int _bufsiz;
  34:C:/Program Files/mingw-w64/x86_64-8.1.0-win32-seh-rt_v6-rev0/mingw64/x86_64-w64-mingw32/include\stdio.h ****     char *_tmpfname;
  35:C:/Program Files/mingw-w64/x86_64-8.1.0-win32-seh-rt_v6-rev0/mingw64/x86_64-w64-mingw32/include\stdio.h ****   };
  36:C:/Program Files/mingw-w64/x86_64-8.1.0-win32-seh-rt_v6-rev0/mingw64/x86_64-w64-mingw32/include\stdio.h ****   typedef struct _iobuf FILE;
  37:C:/Program Files/mingw-w64/x86_64-8.1.0-win32-seh-rt_v6-rev0/mingw64/x86_64-w64-mingw32/include\stdio.h **** #define _FILE_DEFINED
  38:C:/Program Files/mingw-w64/x86_64-8.1.0-win32-seh-rt_v6-rev0/mingw64/x86_64-w64-mingw32/include\stdio.h **** #endif
  39:C:/Program Files/mingw-w64/x86_64-8.1.0-win32-seh-rt_v6-rev0/mingw64/x86_64-w64-mingw32/include\stdio.h **** 
  40:C:/Program Files/mingw-w64/x86_64-8.1.0-win32-seh-rt_v6-rev0/mingw64/x86_64-w64-mingw32/include\stdio.h **** #ifdef _POSIX_
  41:C:/Program Files/mingw-w64/x86_64-8.1.0-win32-seh-rt_v6-rev0/mingw64/x86_64-w64-mingw32/include\stdio.h **** #define _P_tmpdir "/"
  42:C:/Program Files/mingw-w64/x86_64-8.1.0-win32-seh-rt_v6-rev0/mingw64/x86_64-w64-mingw32/include\stdio.h **** #define _wP_tmpdir L"/"
  43:C:/Program Files/mingw-w64/x86_64-8.1.0-win32-seh-rt_v6-rev0/mingw64/x86_64-w64-mingw32/include\stdio.h **** #else
  44:C:/Program Files/mingw-w64/x86_64-8.1.0-win32-seh-rt_v6-rev0/mingw64/x86_64-w64-mingw32/include\stdio.h **** #define _P_tmpdir "\\"
  45:C:/Program Files/mingw-w64/x86_64-8.1.0-win32-seh-rt_v6-rev0/mingw64/x86_64-w64-mingw32/include\stdio.h **** #define _wP_tmpdir L"\\"
  46:C:/Program Files/mingw-w64/x86_64-8.1.0-win32-seh-rt_v6-rev0/mingw64/x86_64-w64-mingw32/include\stdio.h **** #endif
  47:C:/Program Files/mingw-w64/x86_64-8.1.0-win32-seh-rt_v6-rev0/mingw64/x86_64-w64-mingw32/include\stdio.h **** 
  48:C:/Program Files/mingw-w64/x86_64-8.1.0-win32-seh-rt_v6-rev0/mingw64/x86_64-w64-mingw32/include\stdio.h **** #define L_tmpnam (sizeof(_P_tmpdir) + 12)
  49:C:/Program Files/mingw-w64/x86_64-8.1.0-win32-seh-rt_v6-rev0/mingw64/x86_64-w64-mingw32/include\stdio.h **** 
  50:C:/Program Files/mingw-w64/x86_64-8.1.0-win32-seh-rt_v6-rev0/mingw64/x86_64-w64-mingw32/include\stdio.h **** #ifdef _POSIX_
  51:C:/Program Files/mingw-w64/x86_64-8.1.0-win32-seh-rt_v6-rev0/mingw64/x86_64-w64-mingw32/include\stdio.h **** #define L_ctermid 9
  52:C:/Program Files/mingw-w64/x86_64-8.1.0-win32-seh-rt_v6-rev0/mingw64/x86_64-w64-mingw32/include\stdio.h **** #define L_cuserid 32
  53:C:/Program Files/mingw-w64/x86_64-8.1.0-win32-seh-rt_v6-rev0/mingw64/x86_64-w64-mingw32/include\stdio.h **** #endif
  54:C:/Program Files/mingw-w64/x86_64-8.1.0-win32-seh-rt_v6-rev0/mingw64/x86_64-w64-mingw32/include\stdio.h **** 
  55:C:/Program Files/mingw-w64/x86_64-8.1.0-win32-seh-rt_v6-rev0/mingw64/x86_64-w64-mingw32/include\stdio.h **** #define SEEK_CUR 1
  56:C:/Program Files/mingw-w64/x86_64-8.1.0-win32-seh-rt_v6-rev0/mingw64/x86_64-w64-mingw32/include\stdio.h **** #define SEEK_END 2
  57:C:/Program Files/mingw-w64/x86_64-8.1.0-win32-seh-rt_v6-rev0/mingw64/x86_64-w64-mingw32/include\stdio.h **** #define SEEK_SET 0
  58:C:/Program Files/mingw-w64/x86_64-8.1.0-win32-seh-rt_v6-rev0/mingw64/x86_64-w64-mingw32/include\stdio.h **** 
  59:C:/Program Files/mingw-w64/x86_64-8.1.0-win32-seh-rt_v6-rev0/mingw64/x86_64-w64-mingw32/include\stdio.h **** #define	STDIN_FILENO	0
  60:C:/Program Files/mingw-w64/x86_64-8.1.0-win32-seh-rt_v6-rev0/mingw64/x86_64-w64-mingw32/include\stdio.h **** #define	STDOUT_FILENO	1
  61:C:/Program Files/mingw-w64/x86_64-8.1.0-win32-seh-rt_v6-rev0/mingw64/x86_64-w64-mingw32/include\stdio.h **** #define	STDERR_FILENO	2
  62:C:/Program Files/mingw-w64/x86_64-8.1.0-win32-seh-rt_v6-rev0/mingw64/x86_64-w64-mingw32/include\stdio.h **** 
  63:C:/Program Files/mingw-w64/x86_64-8.1.0-win32-seh-rt_v6-rev0/mingw64/x86_64-w64-mingw32/include\stdio.h **** #define FILENAME_MAX 260
  64:C:/Program Files/mingw-w64/x86_64-8.1.0-win32-seh-rt_v6-rev0/mingw64/x86_64-w64-mingw32/include\stdio.h **** #define FOPEN_MAX 20
  65:C:/Program Files/mingw-w64/x86_64-8.1.0-win32-seh-rt_v6-rev0/mingw64/x86_64-w64-mingw32/include\stdio.h **** #define _SYS_OPEN 20
  66:C:/Program Files/mingw-w64/x86_64-8.1.0-win32-seh-rt_v6-rev0/mingw64/x86_64-w64-mingw32/include\stdio.h **** #define TMP_MAX 32767
  67:C:/Program Files/mingw-w64/x86_64-8.1.0-win32-seh-rt_v6-rev0/mingw64/x86_64-w64-mingw32/include\stdio.h **** 
  68:C:/Program Files/mingw-w64/x86_64-8.1.0-win32-seh-rt_v6-rev0/mingw64/x86_64-w64-mingw32/include\stdio.h **** #ifndef NULL
  69:C:/Program Files/mingw-w64/x86_64-8.1.0-win32-seh-rt_v6-rev0/mingw64/x86_64-w64-mingw32/include\stdio.h **** #ifdef __cplusplus
  70:C:/Program Files/mingw-w64/x86_64-8.1.0-win32-seh-rt_v6-rev0/mingw64/x86_64-w64-mingw32/include\stdio.h **** #ifndef _WIN64
  71:C:/Program Files/mingw-w64/x86_64-8.1.0-win32-seh-rt_v6-rev0/mingw64/x86_64-w64-mingw32/include\stdio.h **** #define NULL 0
  72:C:/Program Files/mingw-w64/x86_64-8.1.0-win32-seh-rt_v6-rev0/mingw64/x86_64-w64-mingw32/include\stdio.h **** #else
  73:C:/Program Files/mingw-w64/x86_64-8.1.0-win32-seh-rt_v6-rev0/mingw64/x86_64-w64-mingw32/include\stdio.h **** #define NULL 0LL
  74:C:/Program Files/mingw-w64/x86_64-8.1.0-win32-seh-rt_v6-rev0/mingw64/x86_64-w64-mingw32/include\stdio.h **** #endif  /* W64 */
  75:C:/Program Files/mingw-w64/x86_64-8.1.0-win32-seh-rt_v6-rev0/mingw64/x86_64-w64-mingw32/include\stdio.h **** #else
  76:C:/Program Files/mingw-w64/x86_64-8.1.0-win32-seh-rt_v6-rev0/mingw64/x86_64-w64-mingw32/include\stdio.h **** #define NULL ((void *)0)
  77:C:/Program Files/mingw-w64/x86_64-8.1.0-win32-seh-rt_v6-rev0/mingw64/x86_64-w64-mingw32/include\stdio.h **** #endif
  78:C:/Program Files/mingw-w64/x86_64-8.1.0-win32-seh-rt_v6-rev0/mingw64/x86_64-w64-mingw32/include\stdio.h **** #endif
  79:C:/Program Files/mingw-w64/x86_64-8.1.0-win32-seh-rt_v6-rev0/mingw64/x86_64-w64-mingw32/include\stdio.h **** 
  80:C:/Program Files/mingw-w64/x86_64-8.1.0-win32-seh-rt_v6-rev0/mingw64/x86_64-w64-mingw32/include\stdio.h **** #include <_mingw_off_t.h>
  81:C:/Program Files/mingw-w64/x86_64-8.1.0-win32-seh-rt_v6-rev0/mingw64/x86_64-w64-mingw32/include\stdio.h **** 
  82:C:/Program Files/mingw-w64/x86_64-8.1.0-win32-seh-rt_v6-rev0/mingw64/x86_64-w64-mingw32/include\stdio.h **** _CRTIMP FILE *__cdecl __acrt_iob_func(unsigned index);
  83:C:/Program Files/mingw-w64/x86_64-8.1.0-win32-seh-rt_v6-rev0/mingw64/x86_64-w64-mingw32/include\stdio.h **** #ifndef _STDIO_DEFINED
  84:C:/Program Files/mingw-w64/x86_64-8.1.0-win32-seh-rt_v6-rev0/mingw64/x86_64-w64-mingw32/include\stdio.h **** #ifdef _WIN64
  85:C:/Program Files/mingw-w64/x86_64-8.1.0-win32-seh-rt_v6-rev0/mingw64/x86_64-w64-mingw32/include\stdio.h ****   _CRTIMP FILE *__cdecl __iob_func(void);
  86:C:/Program Files/mingw-w64/x86_64-8.1.0-win32-seh-rt_v6-rev0/mingw64/x86_64-w64-mingw32/include\stdio.h **** #define _iob  __iob_func()
  87:C:/Program Files/mingw-w64/x86_64-8.1.0-win32-seh-rt_v6-rev0/mingw64/x86_64-w64-mingw32/include\stdio.h **** #else
  88:C:/Program Files/mingw-w64/x86_64-8.1.0-win32-seh-rt_v6-rev0/mingw64/x86_64-w64-mingw32/include\stdio.h **** #ifdef _MSVCRT_
  89:C:/Program Files/mingw-w64/x86_64-8.1.0-win32-seh-rt_v6-rev0/mingw64/x86_64-w64-mingw32/include\stdio.h **** extern FILE _iob[];	/* A pointer to an array of FILE */
  90:C:/Program Files/mingw-w64/x86_64-8.1.0-win32-seh-rt_v6-rev0/mingw64/x86_64-w64-mingw32/include\stdio.h **** #define __iob_func()	(_iob)
  91:C:/Program Files/mingw-w64/x86_64-8.1.0-win32-seh-rt_v6-rev0/mingw64/x86_64-w64-mingw32/include\stdio.h **** #else
  92:C:/Program Files/mingw-w64/x86_64-8.1.0-win32-seh-rt_v6-rev0/mingw64/x86_64-w64-mingw32/include\stdio.h **** extern FILE (* __MINGW_IMP_SYMBOL(_iob))[];	/* A pointer to an array of FILE */
  93:C:/Program Files/mingw-w64/x86_64-8.1.0-win32-seh-rt_v6-rev0/mingw64/x86_64-w64-mingw32/include\stdio.h **** #define __iob_func()	(* __MINGW_IMP_SYMBOL(_iob))
  94:C:/Program Files/mingw-w64/x86_64-8.1.0-win32-seh-rt_v6-rev0/mingw64/x86_64-w64-mingw32/include\stdio.h **** #define _iob __iob_func()
  95:C:/Program Files/mingw-w64/x86_64-8.1.0-win32-seh-rt_v6-rev0/mingw64/x86_64-w64-mingw32/include\stdio.h **** #endif
  96:C:/Program Files/mingw-w64/x86_64-8.1.0-win32-seh-rt_v6-rev0/mingw64/x86_64-w64-mingw32/include\stdio.h **** #endif
  97:C:/Program Files/mingw-w64/x86_64-8.1.0-win32-seh-rt_v6-rev0/mingw64/x86_64-w64-mingw32/include\stdio.h **** #endif
  98:C:/Program Files/mingw-w64/x86_64-8.1.0-win32-seh-rt_v6-rev0/mingw64/x86_64-w64-mingw32/include\stdio.h **** 
  99:C:/Program Files/mingw-w64/x86_64-8.1.0-win32-seh-rt_v6-rev0/mingw64/x86_64-w64-mingw32/include\stdio.h **** #ifndef _FPOS_T_DEFINED
 100:C:/Program Files/mingw-w64/x86_64-8.1.0-win32-seh-rt_v6-rev0/mingw64/x86_64-w64-mingw32/include\stdio.h **** #define _FPOS_T_DEFINED
 101:C:/Program Files/mingw-w64/x86_64-8.1.0-win32-seh-rt_v6-rev0/mingw64/x86_64-w64-mingw32/include\stdio.h **** #undef _FPOSOFF
 102:C:/Program Files/mingw-w64/x86_64-8.1.0-win32-seh-rt_v6-rev0/mingw64/x86_64-w64-mingw32/include\stdio.h **** 
 103:C:/Program Files/mingw-w64/x86_64-8.1.0-win32-seh-rt_v6-rev0/mingw64/x86_64-w64-mingw32/include\stdio.h **** #if (!defined(NO_OLDNAMES) || defined(__GNUC__))
 104:C:/Program Files/mingw-w64/x86_64-8.1.0-win32-seh-rt_v6-rev0/mingw64/x86_64-w64-mingw32/include\stdio.h ****   __MINGW_EXTENSION typedef __int64 fpos_t;
 105:C:/Program Files/mingw-w64/x86_64-8.1.0-win32-seh-rt_v6-rev0/mingw64/x86_64-w64-mingw32/include\stdio.h **** #define _FPOSOFF(fp) ((long)(fp))
 106:C:/Program Files/mingw-w64/x86_64-8.1.0-win32-seh-rt_v6-rev0/mingw64/x86_64-w64-mingw32/include\stdio.h **** #else
 107:C:/Program Files/mingw-w64/x86_64-8.1.0-win32-seh-rt_v6-rev0/mingw64/x86_64-w64-mingw32/include\stdio.h ****   __MINGW_EXTENSION typedef long long fpos_t;
 108:C:/Program Files/mingw-w64/x86_64-8.1.0-win32-seh-rt_v6-rev0/mingw64/x86_64-w64-mingw32/include\stdio.h **** #define _FPOSOFF(fp) ((long)(fp))
 109:C:/Program Files/mingw-w64/x86_64-8.1.0-win32-seh-rt_v6-rev0/mingw64/x86_64-w64-mingw32/include\stdio.h **** #endif
 110:C:/Program Files/mingw-w64/x86_64-8.1.0-win32-seh-rt_v6-rev0/mingw64/x86_64-w64-mingw32/include\stdio.h **** 
 111:C:/Program Files/mingw-w64/x86_64-8.1.0-win32-seh-rt_v6-rev0/mingw64/x86_64-w64-mingw32/include\stdio.h **** #endif
 112:C:/Program Files/mingw-w64/x86_64-8.1.0-win32-seh-rt_v6-rev0/mingw64/x86_64-w64-mingw32/include\stdio.h **** 
 113:C:/Program Files/mingw-w64/x86_64-8.1.0-win32-seh-rt_v6-rev0/mingw64/x86_64-w64-mingw32/include\stdio.h **** #ifndef _STDSTREAM_DEFINED
 114:C:/Program Files/mingw-w64/x86_64-8.1.0-win32-seh-rt_v6-rev0/mingw64/x86_64-w64-mingw32/include\stdio.h **** #define _STDSTREAM_DEFINED
 115:C:/Program Files/mingw-w64/x86_64-8.1.0-win32-seh-rt_v6-rev0/mingw64/x86_64-w64-mingw32/include\stdio.h **** 
 116:C:/Program Files/mingw-w64/x86_64-8.1.0-win32-seh-rt_v6-rev0/mingw64/x86_64-w64-mingw32/include\stdio.h **** #define stdin (__acrt_iob_func(0))
 117:C:/Program Files/mingw-w64/x86_64-8.1.0-win32-seh-rt_v6-rev0/mingw64/x86_64-w64-mingw32/include\stdio.h **** #define stdout (__acrt_iob_func(1))
 118:C:/Program Files/mingw-w64/x86_64-8.1.0-win32-seh-rt_v6-rev0/mingw64/x86_64-w64-mingw32/include\stdio.h **** #define stderr (__acrt_iob_func(2))
 119:C:/Program Files/mingw-w64/x86_64-8.1.0-win32-seh-rt_v6-rev0/mingw64/x86_64-w64-mingw32/include\stdio.h **** #endif
 120:C:/Program Files/mingw-w64/x86_64-8.1.0-win32-seh-rt_v6-rev0/mingw64/x86_64-w64-mingw32/include\stdio.h **** 
 121:C:/Program Files/mingw-w64/x86_64-8.1.0-win32-seh-rt_v6-rev0/mingw64/x86_64-w64-mingw32/include\stdio.h **** #define _IOREAD 0x0001
 122:C:/Program Files/mingw-w64/x86_64-8.1.0-win32-seh-rt_v6-rev0/mingw64/x86_64-w64-mingw32/include\stdio.h **** #define _IOWRT 0x0002
 123:C:/Program Files/mingw-w64/x86_64-8.1.0-win32-seh-rt_v6-rev0/mingw64/x86_64-w64-mingw32/include\stdio.h **** 
 124:C:/Program Files/mingw-w64/x86_64-8.1.0-win32-seh-rt_v6-rev0/mingw64/x86_64-w64-mingw32/include\stdio.h **** #define _IOFBF 0x0000
 125:C:/Program Files/mingw-w64/x86_64-8.1.0-win32-seh-rt_v6-rev0/mingw64/x86_64-w64-mingw32/include\stdio.h **** #define _IOLBF 0x0040
 126:C:/Program Files/mingw-w64/x86_64-8.1.0-win32-seh-rt_v6-rev0/mingw64/x86_64-w64-mingw32/include\stdio.h **** #define _IONBF 0x0004
 127:C:/Program Files/mingw-w64/x86_64-8.1.0-win32-seh-rt_v6-rev0/mingw64/x86_64-w64-mingw32/include\stdio.h **** 
 128:C:/Program Files/mingw-w64/x86_64-8.1.0-win32-seh-rt_v6-rev0/mingw64/x86_64-w64-mingw32/include\stdio.h **** #define _IOMYBUF 0x0008
 129:C:/Program Files/mingw-w64/x86_64-8.1.0-win32-seh-rt_v6-rev0/mingw64/x86_64-w64-mingw32/include\stdio.h **** #define _IOEOF 0x0010
 130:C:/Program Files/mingw-w64/x86_64-8.1.0-win32-seh-rt_v6-rev0/mingw64/x86_64-w64-mingw32/include\stdio.h **** #define _IOERR 0x0020
 131:C:/Program Files/mingw-w64/x86_64-8.1.0-win32-seh-rt_v6-rev0/mingw64/x86_64-w64-mingw32/include\stdio.h **** #define _IOSTRG 0x0040
 132:C:/Program Files/mingw-w64/x86_64-8.1.0-win32-seh-rt_v6-rev0/mingw64/x86_64-w64-mingw32/include\stdio.h **** #define _IORW 0x0080
 133:C:/Program Files/mingw-w64/x86_64-8.1.0-win32-seh-rt_v6-rev0/mingw64/x86_64-w64-mingw32/include\stdio.h **** #ifdef _POSIX_
 134:C:/Program Files/mingw-w64/x86_64-8.1.0-win32-seh-rt_v6-rev0/mingw64/x86_64-w64-mingw32/include\stdio.h **** #define _IOAPPEND 0x0200
 135:C:/Program Files/mingw-w64/x86_64-8.1.0-win32-seh-rt_v6-rev0/mingw64/x86_64-w64-mingw32/include\stdio.h **** #endif
 136:C:/Program Files/mingw-w64/x86_64-8.1.0-win32-seh-rt_v6-rev0/mingw64/x86_64-w64-mingw32/include\stdio.h **** 
 137:C:/Program Files/mingw-w64/x86_64-8.1.0-win32-seh-rt_v6-rev0/mingw64/x86_64-w64-mingw32/include\stdio.h **** #define _TWO_DIGIT_EXPONENT 0x1
 138:C:/Program Files/mingw-w64/x86_64-8.1.0-win32-seh-rt_v6-rev0/mingw64/x86_64-w64-mingw32/include\stdio.h **** 
 139:C:/Program Files/mingw-w64/x86_64-8.1.0-win32-seh-rt_v6-rev0/mingw64/x86_64-w64-mingw32/include\stdio.h **** #if !defined(_UCRTBASE_STDIO_DEFINED) && __MSVCRT_VERSION__ >= 0x1400
 140:C:/Program Files/mingw-w64/x86_64-8.1.0-win32-seh-rt_v6-rev0/mingw64/x86_64-w64-mingw32/include\stdio.h **** #define _UCRTBASE_STDIO_DEFINED
 141:C:/Program Files/mingw-w64/x86_64-8.1.0-win32-seh-rt_v6-rev0/mingw64/x86_64-w64-mingw32/include\stdio.h **** 
 142:C:/Program Files/mingw-w64/x86_64-8.1.0-win32-seh-rt_v6-rev0/mingw64/x86_64-w64-mingw32/include\stdio.h **** #define UCRTBASE_PRINTF_LEGACY_VSPRINTF_NULL_TERMINATION (0x0001)
 143:C:/Program Files/mingw-w64/x86_64-8.1.0-win32-seh-rt_v6-rev0/mingw64/x86_64-w64-mingw32/include\stdio.h **** #define UCRTBASE_PRINTF_STANDARD_SNPRINTF_BEHAVIOUR      (0x0002)
 144:C:/Program Files/mingw-w64/x86_64-8.1.0-win32-seh-rt_v6-rev0/mingw64/x86_64-w64-mingw32/include\stdio.h **** #define UCRTBASE_PRINTF_LEGACY_WIDE_SPECIFIERS           (0x0004)
 145:C:/Program Files/mingw-w64/x86_64-8.1.0-win32-seh-rt_v6-rev0/mingw64/x86_64-w64-mingw32/include\stdio.h **** #define UCRTBASE_PRINTF_LEGACY_MSVCRT_COMPATIBILITY      (0x0008)
 146:C:/Program Files/mingw-w64/x86_64-8.1.0-win32-seh-rt_v6-rev0/mingw64/x86_64-w64-mingw32/include\stdio.h **** #define UCRTBASE_PRINTF_LEGACY_THREE_DIGIT_EXPONENTS     (0x0010)
 147:C:/Program Files/mingw-w64/x86_64-8.1.0-win32-seh-rt_v6-rev0/mingw64/x86_64-w64-mingw32/include\stdio.h **** 
 148:C:/Program Files/mingw-w64/x86_64-8.1.0-win32-seh-rt_v6-rev0/mingw64/x86_64-w64-mingw32/include\stdio.h **** #define UCRTBASE_SCANF_SECURECRT                         (0x0001)
 149:C:/Program Files/mingw-w64/x86_64-8.1.0-win32-seh-rt_v6-rev0/mingw64/x86_64-w64-mingw32/include\stdio.h **** #define UCRTBASE_SCANF_LEGACY_WIDE_SPECIFIERS            (0x0002)
 150:C:/Program Files/mingw-w64/x86_64-8.1.0-win32-seh-rt_v6-rev0/mingw64/x86_64-w64-mingw32/include\stdio.h **** #define UCRTBASE_SCANF_LEGACY_MSVCRT_COMPATIBILITY       (0x0004)
 151:C:/Program Files/mingw-w64/x86_64-8.1.0-win32-seh-rt_v6-rev0/mingw64/x86_64-w64-mingw32/include\stdio.h **** 
 152:C:/Program Files/mingw-w64/x86_64-8.1.0-win32-seh-rt_v6-rev0/mingw64/x86_64-w64-mingw32/include\stdio.h **** // Default wide printfs and scanfs to the standard mode
 153:C:/Program Files/mingw-w64/x86_64-8.1.0-win32-seh-rt_v6-rev0/mingw64/x86_64-w64-mingw32/include\stdio.h **** #ifndef UCRTBASE_PRINTF_DEFAULT_WIDE
 154:C:/Program Files/mingw-w64/x86_64-8.1.0-win32-seh-rt_v6-rev0/mingw64/x86_64-w64-mingw32/include\stdio.h **** #define UCRTBASE_PRINTF_DEFAULT_WIDE 0
 155:C:/Program Files/mingw-w64/x86_64-8.1.0-win32-seh-rt_v6-rev0/mingw64/x86_64-w64-mingw32/include\stdio.h **** #endif
 156:C:/Program Files/mingw-w64/x86_64-8.1.0-win32-seh-rt_v6-rev0/mingw64/x86_64-w64-mingw32/include\stdio.h **** #ifndef UCRTBASE_SCANF_DEFAULT_WIDE
 157:C:/Program Files/mingw-w64/x86_64-8.1.0-win32-seh-rt_v6-rev0/mingw64/x86_64-w64-mingw32/include\stdio.h **** #define UCRTBASE_SCANF_DEFAULT_WIDE 0
 158:C:/Program Files/mingw-w64/x86_64-8.1.0-win32-seh-rt_v6-rev0/mingw64/x86_64-w64-mingw32/include\stdio.h **** #endif
 159:C:/Program Files/mingw-w64/x86_64-8.1.0-win32-seh-rt_v6-rev0/mingw64/x86_64-w64-mingw32/include\stdio.h **** #endif
 160:C:/Program Files/mingw-w64/x86_64-8.1.0-win32-seh-rt_v6-rev0/mingw64/x86_64-w64-mingw32/include\stdio.h **** 
 161:C:/Program Files/mingw-w64/x86_64-8.1.0-win32-seh-rt_v6-rev0/mingw64/x86_64-w64-mingw32/include\stdio.h **** #ifndef _STDIO_DEFINED
 162:C:/Program Files/mingw-w64/x86_64-8.1.0-win32-seh-rt_v6-rev0/mingw64/x86_64-w64-mingw32/include\stdio.h **** extern
 163:C:/Program Files/mingw-w64/x86_64-8.1.0-win32-seh-rt_v6-rev0/mingw64/x86_64-w64-mingw32/include\stdio.h ****   __attribute__((__format__ (gnu_scanf, 2, 3))) __MINGW_ATTRIB_NONNULL(2)
 164:C:/Program Files/mingw-w64/x86_64-8.1.0-win32-seh-rt_v6-rev0/mingw64/x86_64-w64-mingw32/include\stdio.h ****   int __cdecl __mingw_sscanf(const char * __restrict__ _Src,const char * __restrict__ _Format,...);
 165:C:/Program Files/mingw-w64/x86_64-8.1.0-win32-seh-rt_v6-rev0/mingw64/x86_64-w64-mingw32/include\stdio.h **** extern
 166:C:/Program Files/mingw-w64/x86_64-8.1.0-win32-seh-rt_v6-rev0/mingw64/x86_64-w64-mingw32/include\stdio.h ****   __attribute__((__format__ (gnu_scanf, 2, 0))) __MINGW_ATTRIB_NONNULL(2)
 167:C:/Program Files/mingw-w64/x86_64-8.1.0-win32-seh-rt_v6-rev0/mingw64/x86_64-w64-mingw32/include\stdio.h ****   int __cdecl __mingw_vsscanf (const char * __restrict__ _Str,const char * __restrict__ Format,va_l
 168:C:/Program Files/mingw-w64/x86_64-8.1.0-win32-seh-rt_v6-rev0/mingw64/x86_64-w64-mingw32/include\stdio.h **** extern
 169:C:/Program Files/mingw-w64/x86_64-8.1.0-win32-seh-rt_v6-rev0/mingw64/x86_64-w64-mingw32/include\stdio.h ****   __attribute__((__format__ (gnu_scanf, 1, 2))) __MINGW_ATTRIB_NONNULL(1)
 170:C:/Program Files/mingw-w64/x86_64-8.1.0-win32-seh-rt_v6-rev0/mingw64/x86_64-w64-mingw32/include\stdio.h ****   int __cdecl __mingw_scanf(const char * __restrict__ _Format,...);
 171:C:/Program Files/mingw-w64/x86_64-8.1.0-win32-seh-rt_v6-rev0/mingw64/x86_64-w64-mingw32/include\stdio.h **** extern
 172:C:/Program Files/mingw-w64/x86_64-8.1.0-win32-seh-rt_v6-rev0/mingw64/x86_64-w64-mingw32/include\stdio.h ****   __attribute__((__format__ (gnu_scanf, 1, 0))) __MINGW_ATTRIB_NONNULL(1)
 173:C:/Program Files/mingw-w64/x86_64-8.1.0-win32-seh-rt_v6-rev0/mingw64/x86_64-w64-mingw32/include\stdio.h ****   int __cdecl __mingw_vscanf(const char * __restrict__ Format, va_list argp);
 174:C:/Program Files/mingw-w64/x86_64-8.1.0-win32-seh-rt_v6-rev0/mingw64/x86_64-w64-mingw32/include\stdio.h **** extern
 175:C:/Program Files/mingw-w64/x86_64-8.1.0-win32-seh-rt_v6-rev0/mingw64/x86_64-w64-mingw32/include\stdio.h ****   __attribute__((__format__ (gnu_scanf, 2, 3))) __MINGW_ATTRIB_NONNULL(2)
 176:C:/Program Files/mingw-w64/x86_64-8.1.0-win32-seh-rt_v6-rev0/mingw64/x86_64-w64-mingw32/include\stdio.h ****   int __cdecl __mingw_fscanf(FILE * __restrict__ _File,const char * __restrict__ _Format,...);
 177:C:/Program Files/mingw-w64/x86_64-8.1.0-win32-seh-rt_v6-rev0/mingw64/x86_64-w64-mingw32/include\stdio.h **** extern
 178:C:/Program Files/mingw-w64/x86_64-8.1.0-win32-seh-rt_v6-rev0/mingw64/x86_64-w64-mingw32/include\stdio.h ****   __attribute__((__format__ (gnu_scanf, 2, 0))) __MINGW_ATTRIB_NONNULL(2)
 179:C:/Program Files/mingw-w64/x86_64-8.1.0-win32-seh-rt_v6-rev0/mingw64/x86_64-w64-mingw32/include\stdio.h ****   int __cdecl __mingw_vfscanf (FILE * __restrict__ fp, const char * __restrict__ Format,va_list arg
 180:C:/Program Files/mingw-w64/x86_64-8.1.0-win32-seh-rt_v6-rev0/mingw64/x86_64-w64-mingw32/include\stdio.h **** 
 181:C:/Program Files/mingw-w64/x86_64-8.1.0-win32-seh-rt_v6-rev0/mingw64/x86_64-w64-mingw32/include\stdio.h **** extern
 182:C:/Program Files/mingw-w64/x86_64-8.1.0-win32-seh-rt_v6-rev0/mingw64/x86_64-w64-mingw32/include\stdio.h ****   __attribute__((__format__ (gnu_printf, 3, 0))) __MINGW_ATTRIB_NONNULL(3)
 183:C:/Program Files/mingw-w64/x86_64-8.1.0-win32-seh-rt_v6-rev0/mingw64/x86_64-w64-mingw32/include\stdio.h ****   int __cdecl __mingw_vsnprintf(char * __restrict__ _DstBuf,size_t _MaxCount,const char * __restric
 184:C:/Program Files/mingw-w64/x86_64-8.1.0-win32-seh-rt_v6-rev0/mingw64/x86_64-w64-mingw32/include\stdio.h ****                                va_list _ArgList);
 185:C:/Program Files/mingw-w64/x86_64-8.1.0-win32-seh-rt_v6-rev0/mingw64/x86_64-w64-mingw32/include\stdio.h **** extern
 186:C:/Program Files/mingw-w64/x86_64-8.1.0-win32-seh-rt_v6-rev0/mingw64/x86_64-w64-mingw32/include\stdio.h ****   __attribute__((__format__ (gnu_printf, 3, 4))) __MINGW_ATTRIB_NONNULL(3)
 187:C:/Program Files/mingw-w64/x86_64-8.1.0-win32-seh-rt_v6-rev0/mingw64/x86_64-w64-mingw32/include\stdio.h ****   int __cdecl __mingw_snprintf(char * __restrict__ s, size_t n, const char * __restrict__  format, 
 188:C:/Program Files/mingw-w64/x86_64-8.1.0-win32-seh-rt_v6-rev0/mingw64/x86_64-w64-mingw32/include\stdio.h **** extern
 189:C:/Program Files/mingw-w64/x86_64-8.1.0-win32-seh-rt_v6-rev0/mingw64/x86_64-w64-mingw32/include\stdio.h ****   __attribute__((__format__ (gnu_printf, 1, 2))) __MINGW_ATTRIB_NONNULL(1)
 190:C:/Program Files/mingw-w64/x86_64-8.1.0-win32-seh-rt_v6-rev0/mingw64/x86_64-w64-mingw32/include\stdio.h ****   int __cdecl __mingw_printf(const char * __restrict__ , ... ) __MINGW_NOTHROW;
 191:C:/Program Files/mingw-w64/x86_64-8.1.0-win32-seh-rt_v6-rev0/mingw64/x86_64-w64-mingw32/include\stdio.h **** extern
 192:C:/Program Files/mingw-w64/x86_64-8.1.0-win32-seh-rt_v6-rev0/mingw64/x86_64-w64-mingw32/include\stdio.h ****   __attribute__((__format__ (gnu_printf, 1, 0))) __MINGW_ATTRIB_NONNULL(1)
 193:C:/Program Files/mingw-w64/x86_64-8.1.0-win32-seh-rt_v6-rev0/mingw64/x86_64-w64-mingw32/include\stdio.h ****   int __cdecl __mingw_vprintf (const char * __restrict__ , va_list) __MINGW_NOTHROW;
 194:C:/Program Files/mingw-w64/x86_64-8.1.0-win32-seh-rt_v6-rev0/mingw64/x86_64-w64-mingw32/include\stdio.h **** extern
 195:C:/Program Files/mingw-w64/x86_64-8.1.0-win32-seh-rt_v6-rev0/mingw64/x86_64-w64-mingw32/include\stdio.h ****   __attribute__((__format__ (gnu_printf, 2, 3))) __MINGW_ATTRIB_NONNULL(2)
 196:C:/Program Files/mingw-w64/x86_64-8.1.0-win32-seh-rt_v6-rev0/mingw64/x86_64-w64-mingw32/include\stdio.h ****   int __cdecl __mingw_fprintf (FILE * __restrict__ , const char * __restrict__ , ...) __MINGW_NOTHR
 197:C:/Program Files/mingw-w64/x86_64-8.1.0-win32-seh-rt_v6-rev0/mingw64/x86_64-w64-mingw32/include\stdio.h **** extern
 198:C:/Program Files/mingw-w64/x86_64-8.1.0-win32-seh-rt_v6-rev0/mingw64/x86_64-w64-mingw32/include\stdio.h ****   __attribute__((__format__ (gnu_printf, 2, 0))) __MINGW_ATTRIB_NONNULL(2)
 199:C:/Program Files/mingw-w64/x86_64-8.1.0-win32-seh-rt_v6-rev0/mingw64/x86_64-w64-mingw32/include\stdio.h ****   int __cdecl __mingw_vfprintf (FILE * __restrict__ , const char * __restrict__ , va_list) __MINGW_
 200:C:/Program Files/mingw-w64/x86_64-8.1.0-win32-seh-rt_v6-rev0/mingw64/x86_64-w64-mingw32/include\stdio.h **** extern
 201:C:/Program Files/mingw-w64/x86_64-8.1.0-win32-seh-rt_v6-rev0/mingw64/x86_64-w64-mingw32/include\stdio.h ****   __attribute__((__format__ (gnu_printf, 2, 3))) __MINGW_ATTRIB_NONNULL(2)
 202:C:/Program Files/mingw-w64/x86_64-8.1.0-win32-seh-rt_v6-rev0/mingw64/x86_64-w64-mingw32/include\stdio.h ****   int __cdecl __mingw_sprintf (char * __restrict__ , const char * __restrict__ , ...) __MINGW_NOTHR
 203:C:/Program Files/mingw-w64/x86_64-8.1.0-win32-seh-rt_v6-rev0/mingw64/x86_64-w64-mingw32/include\stdio.h **** extern
 204:C:/Program Files/mingw-w64/x86_64-8.1.0-win32-seh-rt_v6-rev0/mingw64/x86_64-w64-mingw32/include\stdio.h ****   __attribute__((__format__ (gnu_printf, 2, 0))) __MINGW_ATTRIB_NONNULL(2)
 205:C:/Program Files/mingw-w64/x86_64-8.1.0-win32-seh-rt_v6-rev0/mingw64/x86_64-w64-mingw32/include\stdio.h ****   int __cdecl __mingw_vsprintf (char * __restrict__ , const char * __restrict__ , va_list) __MINGW_
 206:C:/Program Files/mingw-w64/x86_64-8.1.0-win32-seh-rt_v6-rev0/mingw64/x86_64-w64-mingw32/include\stdio.h **** extern
 207:C:/Program Files/mingw-w64/x86_64-8.1.0-win32-seh-rt_v6-rev0/mingw64/x86_64-w64-mingw32/include\stdio.h ****   __attribute__((__format__ (gnu_printf, 2, 3))) __attribute__((nonnull (1,2)))
 208:C:/Program Files/mingw-w64/x86_64-8.1.0-win32-seh-rt_v6-rev0/mingw64/x86_64-w64-mingw32/include\stdio.h ****   int __cdecl __mingw_asprintf(char ** __restrict__ , const char * __restrict__ , ...) __MINGW_NOTH
 209:C:/Program Files/mingw-w64/x86_64-8.1.0-win32-seh-rt_v6-rev0/mingw64/x86_64-w64-mingw32/include\stdio.h **** extern
 210:C:/Program Files/mingw-w64/x86_64-8.1.0-win32-seh-rt_v6-rev0/mingw64/x86_64-w64-mingw32/include\stdio.h ****   __attribute__((__format__ (gnu_printf, 2, 0))) __attribute__((nonnull (1,2)))
 211:C:/Program Files/mingw-w64/x86_64-8.1.0-win32-seh-rt_v6-rev0/mingw64/x86_64-w64-mingw32/include\stdio.h ****   int __cdecl __mingw_vasprintf(char ** __restrict__ , const char * __restrict__ , va_list) __MINGW
 212:C:/Program Files/mingw-w64/x86_64-8.1.0-win32-seh-rt_v6-rev0/mingw64/x86_64-w64-mingw32/include\stdio.h **** 
 213:C:/Program Files/mingw-w64/x86_64-8.1.0-win32-seh-rt_v6-rev0/mingw64/x86_64-w64-mingw32/include\stdio.h **** #if __MSVCRT_VERSION__ >= 0x1400
 214:C:/Program Files/mingw-w64/x86_64-8.1.0-win32-seh-rt_v6-rev0/mingw64/x86_64-w64-mingw32/include\stdio.h ****   int __cdecl __stdio_common_vsprintf(unsigned __int64 options, char *str, size_t len, const char *
 215:C:/Program Files/mingw-w64/x86_64-8.1.0-win32-seh-rt_v6-rev0/mingw64/x86_64-w64-mingw32/include\stdio.h ****   int __cdecl __stdio_common_vfprintf(unsigned __int64 options, FILE *file, const char *format, _lo
 216:C:/Program Files/mingw-w64/x86_64-8.1.0-win32-seh-rt_v6-rev0/mingw64/x86_64-w64-mingw32/include\stdio.h ****   int __cdecl __stdio_common_vsscanf(unsigned __int64 options, const char *input, size_t length, co
 217:C:/Program Files/mingw-w64/x86_64-8.1.0-win32-seh-rt_v6-rev0/mingw64/x86_64-w64-mingw32/include\stdio.h ****   int __cdecl __stdio_common_vfscanf(unsigned __int64 options, FILE *file, const char *format, _loc
 218:C:/Program Files/mingw-w64/x86_64-8.1.0-win32-seh-rt_v6-rev0/mingw64/x86_64-w64-mingw32/include\stdio.h **** #endif
 219:C:/Program Files/mingw-w64/x86_64-8.1.0-win32-seh-rt_v6-rev0/mingw64/x86_64-w64-mingw32/include\stdio.h **** 
 220:C:/Program Files/mingw-w64/x86_64-8.1.0-win32-seh-rt_v6-rev0/mingw64/x86_64-w64-mingw32/include\stdio.h **** #undef __MINGW_PRINTF_FORMAT
 221:C:/Program Files/mingw-w64/x86_64-8.1.0-win32-seh-rt_v6-rev0/mingw64/x86_64-w64-mingw32/include\stdio.h **** #undef __MINGW_SCANF_FORMAT
 222:C:/Program Files/mingw-w64/x86_64-8.1.0-win32-seh-rt_v6-rev0/mingw64/x86_64-w64-mingw32/include\stdio.h **** 
 223:C:/Program Files/mingw-w64/x86_64-8.1.0-win32-seh-rt_v6-rev0/mingw64/x86_64-w64-mingw32/include\stdio.h **** #if defined(__clang__)
 224:C:/Program Files/mingw-w64/x86_64-8.1.0-win32-seh-rt_v6-rev0/mingw64/x86_64-w64-mingw32/include\stdio.h **** #define __MINGW_PRINTF_FORMAT printf
 225:C:/Program Files/mingw-w64/x86_64-8.1.0-win32-seh-rt_v6-rev0/mingw64/x86_64-w64-mingw32/include\stdio.h **** #define __MINGW_SCANF_FORMAT  scanf
 226:C:/Program Files/mingw-w64/x86_64-8.1.0-win32-seh-rt_v6-rev0/mingw64/x86_64-w64-mingw32/include\stdio.h **** #elif defined(__USE_MINGW_ANSI_STDIO)
 227:C:/Program Files/mingw-w64/x86_64-8.1.0-win32-seh-rt_v6-rev0/mingw64/x86_64-w64-mingw32/include\stdio.h **** #define __MINGW_PRINTF_FORMAT gnu_printf
 228:C:/Program Files/mingw-w64/x86_64-8.1.0-win32-seh-rt_v6-rev0/mingw64/x86_64-w64-mingw32/include\stdio.h **** #define __MINGW_SCANF_FORMAT  gnu_scanf
 229:C:/Program Files/mingw-w64/x86_64-8.1.0-win32-seh-rt_v6-rev0/mingw64/x86_64-w64-mingw32/include\stdio.h **** #else
 230:C:/Program Files/mingw-w64/x86_64-8.1.0-win32-seh-rt_v6-rev0/mingw64/x86_64-w64-mingw32/include\stdio.h **** #define __MINGW_PRINTF_FORMAT ms_printf
 231:C:/Program Files/mingw-w64/x86_64-8.1.0-win32-seh-rt_v6-rev0/mingw64/x86_64-w64-mingw32/include\stdio.h **** #define __MINGW_SCANF_FORMAT  ms_scanf
 232:C:/Program Files/mingw-w64/x86_64-8.1.0-win32-seh-rt_v6-rev0/mingw64/x86_64-w64-mingw32/include\stdio.h **** #endif
 233:C:/Program Files/mingw-w64/x86_64-8.1.0-win32-seh-rt_v6-rev0/mingw64/x86_64-w64-mingw32/include\stdio.h **** 
 234:C:/Program Files/mingw-w64/x86_64-8.1.0-win32-seh-rt_v6-rev0/mingw64/x86_64-w64-mingw32/include\stdio.h **** #if __USE_MINGW_ANSI_STDIO
 235:C:/Program Files/mingw-w64/x86_64-8.1.0-win32-seh-rt_v6-rev0/mingw64/x86_64-w64-mingw32/include\stdio.h **** /*
 236:C:/Program Files/mingw-w64/x86_64-8.1.0-win32-seh-rt_v6-rev0/mingw64/x86_64-w64-mingw32/include\stdio.h ****  * User has expressed a preference for C99 conformance...
 237:C:/Program Files/mingw-w64/x86_64-8.1.0-win32-seh-rt_v6-rev0/mingw64/x86_64-w64-mingw32/include\stdio.h ****  */
 238:C:/Program Files/mingw-w64/x86_64-8.1.0-win32-seh-rt_v6-rev0/mingw64/x86_64-w64-mingw32/include\stdio.h **** 
 239:C:/Program Files/mingw-w64/x86_64-8.1.0-win32-seh-rt_v6-rev0/mingw64/x86_64-w64-mingw32/include\stdio.h **** #ifdef _GNU_SOURCE
 240:C:/Program Files/mingw-w64/x86_64-8.1.0-win32-seh-rt_v6-rev0/mingw64/x86_64-w64-mingw32/include\stdio.h **** __mingw_ovr
 241:C:/Program Files/mingw-w64/x86_64-8.1.0-win32-seh-rt_v6-rev0/mingw64/x86_64-w64-mingw32/include\stdio.h **** __attribute__ ((__format__ (gnu_printf, 2, 3))) __attribute__((nonnull (1,2)))
 242:C:/Program Files/mingw-w64/x86_64-8.1.0-win32-seh-rt_v6-rev0/mingw64/x86_64-w64-mingw32/include\stdio.h **** int asprintf(char **__ret, const char *__format, ...)
 243:C:/Program Files/mingw-w64/x86_64-8.1.0-win32-seh-rt_v6-rev0/mingw64/x86_64-w64-mingw32/include\stdio.h **** {
 244:C:/Program Files/mingw-w64/x86_64-8.1.0-win32-seh-rt_v6-rev0/mingw64/x86_64-w64-mingw32/include\stdio.h ****   int __retval;
 245:C:/Program Files/mingw-w64/x86_64-8.1.0-win32-seh-rt_v6-rev0/mingw64/x86_64-w64-mingw32/include\stdio.h ****   __builtin_va_list __local_argv; __builtin_va_start( __local_argv, __format );
 246:C:/Program Files/mingw-w64/x86_64-8.1.0-win32-seh-rt_v6-rev0/mingw64/x86_64-w64-mingw32/include\stdio.h ****   __retval = __mingw_vasprintf( __ret, __format, __local_argv );
 247:C:/Program Files/mingw-w64/x86_64-8.1.0-win32-seh-rt_v6-rev0/mingw64/x86_64-w64-mingw32/include\stdio.h ****   __builtin_va_end( __local_argv );
 248:C:/Program Files/mingw-w64/x86_64-8.1.0-win32-seh-rt_v6-rev0/mingw64/x86_64-w64-mingw32/include\stdio.h ****   return __retval;
 249:C:/Program Files/mingw-w64/x86_64-8.1.0-win32-seh-rt_v6-rev0/mingw64/x86_64-w64-mingw32/include\stdio.h **** }
 250:C:/Program Files/mingw-w64/x86_64-8.1.0-win32-seh-rt_v6-rev0/mingw64/x86_64-w64-mingw32/include\stdio.h **** 
 251:C:/Program Files/mingw-w64/x86_64-8.1.0-win32-seh-rt_v6-rev0/mingw64/x86_64-w64-mingw32/include\stdio.h **** __mingw_ovr
 252:C:/Program Files/mingw-w64/x86_64-8.1.0-win32-seh-rt_v6-rev0/mingw64/x86_64-w64-mingw32/include\stdio.h **** __attribute__ ((__format__ (gnu_printf, 2, 0))) __attribute__((nonnull (1,2)))
 253:C:/Program Files/mingw-w64/x86_64-8.1.0-win32-seh-rt_v6-rev0/mingw64/x86_64-w64-mingw32/include\stdio.h **** int vasprintf(char **__ret, const char *__format, __builtin_va_list __local_argv)
 254:C:/Program Files/mingw-w64/x86_64-8.1.0-win32-seh-rt_v6-rev0/mingw64/x86_64-w64-mingw32/include\stdio.h **** {
 255:C:/Program Files/mingw-w64/x86_64-8.1.0-win32-seh-rt_v6-rev0/mingw64/x86_64-w64-mingw32/include\stdio.h ****   return __mingw_vasprintf( __ret, __format, __local_argv );
 256:C:/Program Files/mingw-w64/x86_64-8.1.0-win32-seh-rt_v6-rev0/mingw64/x86_64-w64-mingw32/include\stdio.h **** }
 257:C:/Program Files/mingw-w64/x86_64-8.1.0-win32-seh-rt_v6-rev0/mingw64/x86_64-w64-mingw32/include\stdio.h **** #endif /* _GNU_SOURCE */
 258:C:/Program Files/mingw-w64/x86_64-8.1.0-win32-seh-rt_v6-rev0/mingw64/x86_64-w64-mingw32/include\stdio.h **** 
 259:C:/Program Files/mingw-w64/x86_64-8.1.0-win32-seh-rt_v6-rev0/mingw64/x86_64-w64-mingw32/include\stdio.h **** /* There seems to be a bug about builtins and static overrides of them
 260:C:/Program Files/mingw-w64/x86_64-8.1.0-win32-seh-rt_v6-rev0/mingw64/x86_64-w64-mingw32/include\stdio.h ****    in g++.  So we need to do here some trickery.  */
 261:C:/Program Files/mingw-w64/x86_64-8.1.0-win32-seh-rt_v6-rev0/mingw64/x86_64-w64-mingw32/include\stdio.h **** #ifdef __cplusplus
 262:C:/Program Files/mingw-w64/x86_64-8.1.0-win32-seh-rt_v6-rev0/mingw64/x86_64-w64-mingw32/include\stdio.h **** extern "C++" {
 263:C:/Program Files/mingw-w64/x86_64-8.1.0-win32-seh-rt_v6-rev0/mingw64/x86_64-w64-mingw32/include\stdio.h **** #endif
 264:C:/Program Files/mingw-w64/x86_64-8.1.0-win32-seh-rt_v6-rev0/mingw64/x86_64-w64-mingw32/include\stdio.h **** 
 265:C:/Program Files/mingw-w64/x86_64-8.1.0-win32-seh-rt_v6-rev0/mingw64/x86_64-w64-mingw32/include\stdio.h **** __mingw_ovr
 266:C:/Program Files/mingw-w64/x86_64-8.1.0-win32-seh-rt_v6-rev0/mingw64/x86_64-w64-mingw32/include\stdio.h **** __attribute__((__format__ (gnu_scanf, 2, 3))) __MINGW_ATTRIB_NONNULL(2)
 267:C:/Program Files/mingw-w64/x86_64-8.1.0-win32-seh-rt_v6-rev0/mingw64/x86_64-w64-mingw32/include\stdio.h **** int sscanf(const char *__source, const char *__format, ...)
 268:C:/Program Files/mingw-w64/x86_64-8.1.0-win32-seh-rt_v6-rev0/mingw64/x86_64-w64-mingw32/include\stdio.h **** {
 269:C:/Program Files/mingw-w64/x86_64-8.1.0-win32-seh-rt_v6-rev0/mingw64/x86_64-w64-mingw32/include\stdio.h ****   int __retval;
 270:C:/Program Files/mingw-w64/x86_64-8.1.0-win32-seh-rt_v6-rev0/mingw64/x86_64-w64-mingw32/include\stdio.h ****   __builtin_va_list __local_argv; __builtin_va_start( __local_argv, __format );
 271:C:/Program Files/mingw-w64/x86_64-8.1.0-win32-seh-rt_v6-rev0/mingw64/x86_64-w64-mingw32/include\stdio.h ****   __retval = __mingw_vsscanf( __source, __format, __local_argv );
 272:C:/Program Files/mingw-w64/x86_64-8.1.0-win32-seh-rt_v6-rev0/mingw64/x86_64-w64-mingw32/include\stdio.h ****   __builtin_va_end( __local_argv );
 273:C:/Program Files/mingw-w64/x86_64-8.1.0-win32-seh-rt_v6-rev0/mingw64/x86_64-w64-mingw32/include\stdio.h ****   return __retval;
 274:C:/Program Files/mingw-w64/x86_64-8.1.0-win32-seh-rt_v6-rev0/mingw64/x86_64-w64-mingw32/include\stdio.h **** }
 275:C:/Program Files/mingw-w64/x86_64-8.1.0-win32-seh-rt_v6-rev0/mingw64/x86_64-w64-mingw32/include\stdio.h **** 
 276:C:/Program Files/mingw-w64/x86_64-8.1.0-win32-seh-rt_v6-rev0/mingw64/x86_64-w64-mingw32/include\stdio.h **** __mingw_ovr
 277:C:/Program Files/mingw-w64/x86_64-8.1.0-win32-seh-rt_v6-rev0/mingw64/x86_64-w64-mingw32/include\stdio.h **** __attribute__((__format__ (gnu_scanf, 1, 2))) __MINGW_ATTRIB_NONNULL(1)
 278:C:/Program Files/mingw-w64/x86_64-8.1.0-win32-seh-rt_v6-rev0/mingw64/x86_64-w64-mingw32/include\stdio.h **** int scanf(const char *__format, ...)
 279:C:/Program Files/mingw-w64/x86_64-8.1.0-win32-seh-rt_v6-rev0/mingw64/x86_64-w64-mingw32/include\stdio.h **** {
 280:C:/Program Files/mingw-w64/x86_64-8.1.0-win32-seh-rt_v6-rev0/mingw64/x86_64-w64-mingw32/include\stdio.h ****   int __retval;
 281:C:/Program Files/mingw-w64/x86_64-8.1.0-win32-seh-rt_v6-rev0/mingw64/x86_64-w64-mingw32/include\stdio.h ****   __builtin_va_list __local_argv; __builtin_va_start( __local_argv, __format );
 282:C:/Program Files/mingw-w64/x86_64-8.1.0-win32-seh-rt_v6-rev0/mingw64/x86_64-w64-mingw32/include\stdio.h ****   __retval = __mingw_vfscanf( stdin, __format, __local_argv );
 283:C:/Program Files/mingw-w64/x86_64-8.1.0-win32-seh-rt_v6-rev0/mingw64/x86_64-w64-mingw32/include\stdio.h ****   __builtin_va_end( __local_argv );
 284:C:/Program Files/mingw-w64/x86_64-8.1.0-win32-seh-rt_v6-rev0/mingw64/x86_64-w64-mingw32/include\stdio.h ****   return __retval;
 285:C:/Program Files/mingw-w64/x86_64-8.1.0-win32-seh-rt_v6-rev0/mingw64/x86_64-w64-mingw32/include\stdio.h **** }
 286:C:/Program Files/mingw-w64/x86_64-8.1.0-win32-seh-rt_v6-rev0/mingw64/x86_64-w64-mingw32/include\stdio.h **** 
 287:C:/Program Files/mingw-w64/x86_64-8.1.0-win32-seh-rt_v6-rev0/mingw64/x86_64-w64-mingw32/include\stdio.h **** __mingw_ovr
 288:C:/Program Files/mingw-w64/x86_64-8.1.0-win32-seh-rt_v6-rev0/mingw64/x86_64-w64-mingw32/include\stdio.h **** __attribute__((__format__ (gnu_scanf, 2, 3))) __MINGW_ATTRIB_NONNULL(2)
 289:C:/Program Files/mingw-w64/x86_64-8.1.0-win32-seh-rt_v6-rev0/mingw64/x86_64-w64-mingw32/include\stdio.h **** int fscanf(FILE *__stream, const char *__format, ...)
 290:C:/Program Files/mingw-w64/x86_64-8.1.0-win32-seh-rt_v6-rev0/mingw64/x86_64-w64-mingw32/include\stdio.h **** {
 291:C:/Program Files/mingw-w64/x86_64-8.1.0-win32-seh-rt_v6-rev0/mingw64/x86_64-w64-mingw32/include\stdio.h ****   int __retval;
 292:C:/Program Files/mingw-w64/x86_64-8.1.0-win32-seh-rt_v6-rev0/mingw64/x86_64-w64-mingw32/include\stdio.h ****   __builtin_va_list __local_argv; __builtin_va_start( __local_argv, __format );
 293:C:/Program Files/mingw-w64/x86_64-8.1.0-win32-seh-rt_v6-rev0/mingw64/x86_64-w64-mingw32/include\stdio.h ****   __retval = __mingw_vfscanf( __stream, __format, __local_argv );
 294:C:/Program Files/mingw-w64/x86_64-8.1.0-win32-seh-rt_v6-rev0/mingw64/x86_64-w64-mingw32/include\stdio.h ****   __builtin_va_end( __local_argv );
 295:C:/Program Files/mingw-w64/x86_64-8.1.0-win32-seh-rt_v6-rev0/mingw64/x86_64-w64-mingw32/include\stdio.h ****   return __retval;
 296:C:/Program Files/mingw-w64/x86_64-8.1.0-win32-seh-rt_v6-rev0/mingw64/x86_64-w64-mingw32/include\stdio.h **** }
 297:C:/Program Files/mingw-w64/x86_64-8.1.0-win32-seh-rt_v6-rev0/mingw64/x86_64-w64-mingw32/include\stdio.h **** 
 298:C:/Program Files/mingw-w64/x86_64-8.1.0-win32-seh-rt_v6-rev0/mingw64/x86_64-w64-mingw32/include\stdio.h **** #ifndef __NO_ISOCEXT  /* externs in libmingwex.a */
 299:C:/Program Files/mingw-w64/x86_64-8.1.0-win32-seh-rt_v6-rev0/mingw64/x86_64-w64-mingw32/include\stdio.h **** #ifdef __GNUC__
 300:C:/Program Files/mingw-w64/x86_64-8.1.0-win32-seh-rt_v6-rev0/mingw64/x86_64-w64-mingw32/include\stdio.h **** #pragma GCC diagnostic push
 301:C:/Program Files/mingw-w64/x86_64-8.1.0-win32-seh-rt_v6-rev0/mingw64/x86_64-w64-mingw32/include\stdio.h **** #pragma GCC diagnostic ignored "-Wshadow"
 302:C:/Program Files/mingw-w64/x86_64-8.1.0-win32-seh-rt_v6-rev0/mingw64/x86_64-w64-mingw32/include\stdio.h **** #endif
 303:C:/Program Files/mingw-w64/x86_64-8.1.0-win32-seh-rt_v6-rev0/mingw64/x86_64-w64-mingw32/include\stdio.h **** 
 304:C:/Program Files/mingw-w64/x86_64-8.1.0-win32-seh-rt_v6-rev0/mingw64/x86_64-w64-mingw32/include\stdio.h **** __mingw_ovr
 305:C:/Program Files/mingw-w64/x86_64-8.1.0-win32-seh-rt_v6-rev0/mingw64/x86_64-w64-mingw32/include\stdio.h **** __attribute__((__format__ (gnu_scanf, 2, 0))) __MINGW_ATTRIB_NONNULL(2)
 306:C:/Program Files/mingw-w64/x86_64-8.1.0-win32-seh-rt_v6-rev0/mingw64/x86_64-w64-mingw32/include\stdio.h **** int vsscanf (const char *__source, const char *__format, __builtin_va_list __local_argv)
 307:C:/Program Files/mingw-w64/x86_64-8.1.0-win32-seh-rt_v6-rev0/mingw64/x86_64-w64-mingw32/include\stdio.h **** {
 308:C:/Program Files/mingw-w64/x86_64-8.1.0-win32-seh-rt_v6-rev0/mingw64/x86_64-w64-mingw32/include\stdio.h ****   return __mingw_vsscanf( __source, __format, __local_argv );
 309:C:/Program Files/mingw-w64/x86_64-8.1.0-win32-seh-rt_v6-rev0/mingw64/x86_64-w64-mingw32/include\stdio.h **** }
 310:C:/Program Files/mingw-w64/x86_64-8.1.0-win32-seh-rt_v6-rev0/mingw64/x86_64-w64-mingw32/include\stdio.h **** 
 311:C:/Program Files/mingw-w64/x86_64-8.1.0-win32-seh-rt_v6-rev0/mingw64/x86_64-w64-mingw32/include\stdio.h **** __mingw_ovr
 312:C:/Program Files/mingw-w64/x86_64-8.1.0-win32-seh-rt_v6-rev0/mingw64/x86_64-w64-mingw32/include\stdio.h **** __attribute__((__format__ (gnu_scanf, 1, 0))) __MINGW_ATTRIB_NONNULL(1)
 313:C:/Program Files/mingw-w64/x86_64-8.1.0-win32-seh-rt_v6-rev0/mingw64/x86_64-w64-mingw32/include\stdio.h **** int vscanf(const char *__format,  __builtin_va_list __local_argv)
 314:C:/Program Files/mingw-w64/x86_64-8.1.0-win32-seh-rt_v6-rev0/mingw64/x86_64-w64-mingw32/include\stdio.h **** {
 315:C:/Program Files/mingw-w64/x86_64-8.1.0-win32-seh-rt_v6-rev0/mingw64/x86_64-w64-mingw32/include\stdio.h ****   return __mingw_vfscanf( stdin, __format, __local_argv );
 316:C:/Program Files/mingw-w64/x86_64-8.1.0-win32-seh-rt_v6-rev0/mingw64/x86_64-w64-mingw32/include\stdio.h **** }
 317:C:/Program Files/mingw-w64/x86_64-8.1.0-win32-seh-rt_v6-rev0/mingw64/x86_64-w64-mingw32/include\stdio.h **** 
 318:C:/Program Files/mingw-w64/x86_64-8.1.0-win32-seh-rt_v6-rev0/mingw64/x86_64-w64-mingw32/include\stdio.h **** __mingw_ovr
 319:C:/Program Files/mingw-w64/x86_64-8.1.0-win32-seh-rt_v6-rev0/mingw64/x86_64-w64-mingw32/include\stdio.h **** __attribute__((__format__ (gnu_scanf, 2, 0))) __MINGW_ATTRIB_NONNULL(2)
 320:C:/Program Files/mingw-w64/x86_64-8.1.0-win32-seh-rt_v6-rev0/mingw64/x86_64-w64-mingw32/include\stdio.h **** int vfscanf (FILE *__stream,  const char *__format, __builtin_va_list __local_argv)
 321:C:/Program Files/mingw-w64/x86_64-8.1.0-win32-seh-rt_v6-rev0/mingw64/x86_64-w64-mingw32/include\stdio.h **** {
 322:C:/Program Files/mingw-w64/x86_64-8.1.0-win32-seh-rt_v6-rev0/mingw64/x86_64-w64-mingw32/include\stdio.h ****   return __mingw_vfscanf( __stream, __format, __local_argv );
 323:C:/Program Files/mingw-w64/x86_64-8.1.0-win32-seh-rt_v6-rev0/mingw64/x86_64-w64-mingw32/include\stdio.h **** }
 324:C:/Program Files/mingw-w64/x86_64-8.1.0-win32-seh-rt_v6-rev0/mingw64/x86_64-w64-mingw32/include\stdio.h **** 
 325:C:/Program Files/mingw-w64/x86_64-8.1.0-win32-seh-rt_v6-rev0/mingw64/x86_64-w64-mingw32/include\stdio.h **** #ifdef __GNUC__
 326:C:/Program Files/mingw-w64/x86_64-8.1.0-win32-seh-rt_v6-rev0/mingw64/x86_64-w64-mingw32/include\stdio.h **** #pragma GCC diagnostic pop
 327:C:/Program Files/mingw-w64/x86_64-8.1.0-win32-seh-rt_v6-rev0/mingw64/x86_64-w64-mingw32/include\stdio.h **** #endif
 328:C:/Program Files/mingw-w64/x86_64-8.1.0-win32-seh-rt_v6-rev0/mingw64/x86_64-w64-mingw32/include\stdio.h **** #endif /* __NO_ISOCEXT */
 329:C:/Program Files/mingw-w64/x86_64-8.1.0-win32-seh-rt_v6-rev0/mingw64/x86_64-w64-mingw32/include\stdio.h **** 
 330:C:/Program Files/mingw-w64/x86_64-8.1.0-win32-seh-rt_v6-rev0/mingw64/x86_64-w64-mingw32/include\stdio.h **** 
 331:C:/Program Files/mingw-w64/x86_64-8.1.0-win32-seh-rt_v6-rev0/mingw64/x86_64-w64-mingw32/include\stdio.h **** 
 332:C:/Program Files/mingw-w64/x86_64-8.1.0-win32-seh-rt_v6-rev0/mingw64/x86_64-w64-mingw32/include\stdio.h **** __mingw_ovr
 333:C:/Program Files/mingw-w64/x86_64-8.1.0-win32-seh-rt_v6-rev0/mingw64/x86_64-w64-mingw32/include\stdio.h **** __attribute__((__format__ (gnu_printf, 2, 3))) __MINGW_ATTRIB_NONNULL(2)
 334:C:/Program Files/mingw-w64/x86_64-8.1.0-win32-seh-rt_v6-rev0/mingw64/x86_64-w64-mingw32/include\stdio.h **** int fprintf (FILE *__stream, const char *__format, ...)
 335:C:/Program Files/mingw-w64/x86_64-8.1.0-win32-seh-rt_v6-rev0/mingw64/x86_64-w64-mingw32/include\stdio.h **** {
 336:C:/Program Files/mingw-w64/x86_64-8.1.0-win32-seh-rt_v6-rev0/mingw64/x86_64-w64-mingw32/include\stdio.h ****   int __retval;
 337:C:/Program Files/mingw-w64/x86_64-8.1.0-win32-seh-rt_v6-rev0/mingw64/x86_64-w64-mingw32/include\stdio.h ****   __builtin_va_list __local_argv; __builtin_va_start( __local_argv, __format );
 338:C:/Program Files/mingw-w64/x86_64-8.1.0-win32-seh-rt_v6-rev0/mingw64/x86_64-w64-mingw32/include\stdio.h ****   __retval = __mingw_vfprintf( __stream, __format, __local_argv );
 339:C:/Program Files/mingw-w64/x86_64-8.1.0-win32-seh-rt_v6-rev0/mingw64/x86_64-w64-mingw32/include\stdio.h ****   __builtin_va_end( __local_argv );
 340:C:/Program Files/mingw-w64/x86_64-8.1.0-win32-seh-rt_v6-rev0/mingw64/x86_64-w64-mingw32/include\stdio.h ****   return __retval;
 341:C:/Program Files/mingw-w64/x86_64-8.1.0-win32-seh-rt_v6-rev0/mingw64/x86_64-w64-mingw32/include\stdio.h **** }
 342:C:/Program Files/mingw-w64/x86_64-8.1.0-win32-seh-rt_v6-rev0/mingw64/x86_64-w64-mingw32/include\stdio.h **** 
 343:C:/Program Files/mingw-w64/x86_64-8.1.0-win32-seh-rt_v6-rev0/mingw64/x86_64-w64-mingw32/include\stdio.h **** __mingw_ovr
 344:C:/Program Files/mingw-w64/x86_64-8.1.0-win32-seh-rt_v6-rev0/mingw64/x86_64-w64-mingw32/include\stdio.h **** __attribute__((__format__ (gnu_printf, 1, 2))) __MINGW_ATTRIB_NONNULL(1)
 345:C:/Program Files/mingw-w64/x86_64-8.1.0-win32-seh-rt_v6-rev0/mingw64/x86_64-w64-mingw32/include\stdio.h **** int printf (const char *__format, ...)
 346:C:/Program Files/mingw-w64/x86_64-8.1.0-win32-seh-rt_v6-rev0/mingw64/x86_64-w64-mingw32/include\stdio.h **** {
  13              		.loc 1 346 1
  14              		.cfi_startproc
  15 0000 55       		pushq	%rbp
  16              		.seh_pushreg	%rbp
  17              		.cfi_def_cfa_offset 16
  18              		.cfi_offset 6, -16
  19 0001 53       		pushq	%rbx
  20              		.seh_pushreg	%rbx
  21              		.cfi_def_cfa_offset 24
  22              		.cfi_offset 3, -24
  23 0002 4883EC38 		subq	$56, %rsp
  24              		.seh_stackalloc	56
  25              		.cfi_def_cfa_offset 80
  26 0006 488DAC24 		leaq	128(%rsp), %rbp
  26      80000000 
  27              		.seh_setframe	%rbp, 128
  28              		.cfi_def_cfa 6, -48
  29              		.seh_endprologue
  30 000e 48894DD0 		movq	%rcx, -48(%rbp)
  31 0012 488955D8 		movq	%rdx, -40(%rbp)
  32 0016 4C8945E0 		movq	%r8, -32(%rbp)
  33 001a 4C894DE8 		movq	%r9, -24(%rbp)
 347:C:/Program Files/mingw-w64/x86_64-8.1.0-win32-seh-rt_v6-rev0/mingw64/x86_64-w64-mingw32/include\stdio.h ****   int __retval;
 348:C:/Program Files/mingw-w64/x86_64-8.1.0-win32-seh-rt_v6-rev0/mingw64/x86_64-w64-mingw32/include\stdio.h ****   __builtin_va_list __local_argv; __builtin_va_start( __local_argv, __format );
  34              		.loc 1 348 53
  35 001e 488D45D8 		leaq	-40(%rbp), %rax
  36 0022 488945A0 		movq	%rax, -96(%rbp)
 349:C:/Program Files/mingw-w64/x86_64-8.1.0-win32-seh-rt_v6-rev0/mingw64/x86_64-w64-mingw32/include\stdio.h ****   __retval = __mingw_vfprintf( stdout, __format, __local_argv );
  37              		.loc 1 349 30
  38 0026 488B5DA0 		movq	-96(%rbp), %rbx
  39 002a B9010000 		movl	$1, %ecx
  39      00
  40 002f 488B0500 		movq	__imp___acrt_iob_func(%rip), %rax
  40      000000
  41 0036 FFD0     		call	*%rax
  42              	.LVL0:
  43 0038 4989D8   		movq	%rbx, %r8
  44 003b 488B55D0 		movq	-48(%rbp), %rdx
  45 003f 4889C1   		movq	%rax, %rcx
  46 0042 E8000000 		call	__mingw_vfprintf
  46      00
  47 0047 8945AC   		movl	%eax, -84(%rbp)
 350:C:/Program Files/mingw-w64/x86_64-8.1.0-win32-seh-rt_v6-rev0/mingw64/x86_64-w64-mingw32/include\stdio.h ****   __builtin_va_end( __local_argv );
 351:C:/Program Files/mingw-w64/x86_64-8.1.0-win32-seh-rt_v6-rev0/mingw64/x86_64-w64-mingw32/include\stdio.h ****   return __retval;
  48              		.loc 1 351 10
  49 004a 8B45AC   		movl	-84(%rbp), %eax
 352:C:/Program Files/mingw-w64/x86_64-8.1.0-win32-seh-rt_v6-rev0/mingw64/x86_64-w64-mingw32/include\stdio.h **** }
  50              		.loc 1 352 1
  51 004d 4883C438 		addq	$56, %rsp
  52 0051 5B       		popq	%rbx
  53              		.cfi_restore 3
  54 0052 5D       		popq	%rbp
  55              		.cfi_restore 6
  56              		.cfi_def_cfa 7, -40
  57 0053 C3       		ret
  58              		.cfi_endproc
  59              	.LFE8:
  60              		.seh_endproc
  61 0054 90909090 		.section .rdata,"dr"
  61      90909090 
  61      90909090 
  62              		.align 4
  63              	_ZL4maxn:
  64 0000 00000200 		.long	131072
  65              		.globl	buffer
  66              		.bss
  67              		.align 32
  68              	buffer:
  69 0000 00000000 		.space 131072
  69      00000000 
  69      00000000 
  69      00000000 
  69      00000000 
  70              		.globl	S
  71              		.align 8
  72              	S:
  73 20000 00000000 		.space 8
  73      00000000 
  74              		.globl	T
  75              		.align 8
  76              	T:
  77 20008 00000000 		.space 8
  77      00000000 
  78 20010 00000000 		.text
  78      00000000 
  78      00000000 
  78      00000000 
  79              		.globl	_Z8Get_Charv
  81              		.seh_proc	_Z8Get_Charv
  82              	_Z8Get_Charv:
  83              	.LFB44:
  84              		.file 2 "../../code/code/\312\265\321\351\243\272\273\343\261\340/\277\354\266\301.cpp"
   1:../../code/code//.cpp **** #include <cstdio>
   2:../../code/code//.cpp **** 
   3:../../code/code//.cpp **** using namespace std;
   4:../../code/code//.cpp **** 
   5:../../code/code//.cpp **** const int maxn = 2 << 16;
   6:../../code/code//.cpp **** 
   7:../../code/code//.cpp **** char buffer[maxn], *S, *T;
   8:../../code/code//.cpp **** char Get_Char()
   9:../../code/code//.cpp **** {
  85              		.loc 2 9 1
  86              		.cfi_startproc
  87 0000 55       		pushq	%rbp
  88              		.seh_pushreg	%rbp
  89              		.cfi_def_cfa_offset 16
  90              		.cfi_offset 6, -16
  91 0001 53       		pushq	%rbx
  92              		.seh_pushreg	%rbx
  93              		.cfi_def_cfa_offset 24
  94              		.cfi_offset 3, -24
  95 0002 4883EC28 		subq	$40, %rsp
  96              		.seh_stackalloc	40
  97              		.cfi_def_cfa_offset 64
  98 0006 488DAC24 		leaq	128(%rsp), %rbp
  98      80000000 
  99              		.seh_setframe	%rbp, 128
 100              		.cfi_def_cfa 6, -64
 101              		.seh_endprologue
  10:../../code/code//.cpp **** 	if (S == T)
 102              		.loc 2 10 8
 103 000e 488B1500 		movq	S(%rip), %rdx
 103      000200
 104 0015 488B0508 		movq	T(%rip), %rax
 104      000200
 105              		.loc 2 10 2
 106 001c 4839C2   		cmpq	%rax, %rdx
 107 001f 7561     		jne	.L4
  11:../../code/code//.cpp **** 	{
  12:../../code/code//.cpp **** 		T = (S = buffer) + fread(buffer, 1, maxn, stdin);
 108              		.loc 2 12 10
 109 0021 488D0500 		leaq	buffer(%rip), %rax
 109      000000
 110 0028 48890500 		movq	%rax, S(%rip)
 110      000200
 111 002f 488B1D00 		movq	S(%rip), %rbx
 111      000200
 112              		.loc 2 12 27
 113 0036 B9000000 		movl	$0, %ecx
 113      00
 114 003b 488B0500 		movq	__imp___acrt_iob_func(%rip), %rax
 114      000000
 115 0042 FFD0     		call	*%rax
 116              	.LVL1:
 117 0044 4989C1   		movq	%rax, %r9
 118 0047 41B80000 		movl	$131072, %r8d
 118      0200
 119 004d BA010000 		movl	$1, %edx
 119      00
 120 0052 488D0D00 		leaq	buffer(%rip), %rcx
 120      000000
 121 0059 E8000000 		call	fread
 121      00
 122              		.loc 2 12 20
 123 005e 4801D8   		addq	%rbx, %rax
 124              		.loc 2 12 5
 125 0061 48890508 		movq	%rax, T(%rip)
 125      000200
  13:../../code/code//.cpp **** 		if (S == T) return EOF;
 126              		.loc 2 13 9
 127 0068 488B1500 		movq	S(%rip), %rdx
 127      000200
 128 006f 488B0508 		movq	T(%rip), %rax
 128      000200
 129              		.loc 2 13 3
 130 0076 4839C2   		cmpq	%rax, %rdx
 131 0079 7507     		jne	.L4
 132              		.loc 2 13 22 discriminator 1
 133 007b B8FFFFFF 		movl	$-1, %eax
 133      FF
 134 0080 EB15     		jmp	.L5
 135              	.L4:
  14:../../code/code//.cpp **** 	}
  15:../../code/code//.cpp **** 	return *S++;
 136              		.loc 2 15 11
 137 0082 488B0500 		movq	S(%rip), %rax
 137      000200
 138 0089 488D5001 		leaq	1(%rax), %rdx
 139 008d 48891500 		movq	%rdx, S(%rip)
 139      000200
 140 0094 0FB600   		movzbl	(%rax), %eax
 141              	.L5:
  16:../../code/code//.cpp **** }
 142              		.loc 2 16 1
 143 0097 4883C428 		addq	$40, %rsp
 144 009b 5B       		popq	%rbx
 145              		.cfi_restore 3
 146 009c 5D       		popq	%rbp
 147              		.cfi_restore 6
 148              		.cfi_def_cfa 7, -24
 149 009d C3       		ret
 150              		.cfi_endproc
 151              	.LFE44:
 152              		.seh_endproc
 153              		.globl	_Z7Get_Intv
 155              		.seh_proc	_Z7Get_Intv
 156              	_Z7Get_Intv:
 157              	.LFB45:
  17:../../code/code//.cpp **** 
  18:../../code/code//.cpp **** int Get_Int()
  19:../../code/code//.cpp **** {
 158              		.loc 2 19 1
 159              		.cfi_startproc
 160 009e 55       		pushq	%rbp
 161              		.seh_pushreg	%rbp
 162              		.cfi_def_cfa_offset 16
 163              		.cfi_offset 6, -16
 164 009f 4889E5   		movq	%rsp, %rbp
 165              		.seh_setframe	%rbp, 0
 166              		.cfi_def_cfa_register 6
 167 00a2 4883EC30 		subq	$48, %rsp
 168              		.seh_stackalloc	48
 169              		.seh_endprologue
  20:../../code/code//.cpp **** 	char c;
  21:../../code/code//.cpp **** 	int re = 0;
 170              		.loc 2 21 6
 171 00a6 C745F800 		movl	$0, -8(%rbp)
 171      000000
  22:../../code/code//.cpp **** 	for (c = Get_Char(); c < '0' || c > '9'; c = Get_Char())
 172              		.loc 2 22 19
 173 00ad E84EFFFF 		call	_Z8Get_Charv
 173      FF
 174 00b2 8845FF   		movb	%al, -1(%rbp)
 175              	.L9:
 176              		.loc 2 22 31 discriminator 5
 177 00b5 807DFF2F 		cmpb	$47, -1(%rbp)
 178 00b9 7E06     		jle	.L7
 179              		.loc 2 22 31 is_stmt 0 discriminator 2
 180 00bb 807DFF39 		cmpb	$57, -1(%rbp)
 181 00bf 7E0A     		jle	.L8
 182              	.L7:
 183              		.loc 2 22 55 is_stmt 1 discriminator 4
 184 00c1 E83AFFFF 		call	_Z8Get_Charv
 184      FF
 185 00c6 8845FF   		movb	%al, -1(%rbp)
 186              		.loc 2 22 2 discriminator 4
 187 00c9 EBEA     		jmp	.L9
 188              	.L8:
  23:../../code/code//.cpp **** 		;
  24:../../code/code//.cpp **** 	while (c >= '0' && c <= '9')
 189              		.loc 2 24 18
 190 00cb 807DFF2F 		cmpb	$47, -1(%rbp)
 191 00cf 7E2A     		jle	.L10
 192              		.loc 2 24 18 is_stmt 0 discriminator 1
 193 00d1 807DFF39 		cmpb	$57, -1(%rbp)
 194 00d5 7F24     		jg	.L10
  25:../../code/code//.cpp **** 		re = (re << 1) + (re << 3) + (c - '0'), c = Get_Char();
 195              		.loc 2 25 12 is_stmt 1
 196 00d7 8B45F8   		movl	-8(%rbp), %eax
 197 00da 8D1400   		leal	(%rax,%rax), %edx
 198              		.loc 2 25 24
 199 00dd 8B45F8   		movl	-8(%rbp), %eax
 200 00e0 C1E003   		sall	$3, %eax
 201              		.loc 2 25 18
 202 00e3 01C2     		addl	%eax, %edx
 203              		.loc 2 25 35
 204 00e5 0FBE45FF 		movsbl	-1(%rbp), %eax
 205 00e9 83E830   		subl	$48, %eax
 206              		.loc 2 25 6
 207 00ec 01D0     		addl	%edx, %eax
 208 00ee 8945F8   		movl	%eax, -8(%rbp)
 209              		.loc 2 25 55
 210 00f1 E80AFFFF 		call	_Z8Get_Charv
 210      FF
 211 00f6 8845FF   		movb	%al, -1(%rbp)
  24:../../code/code//.cpp **** 		re = (re << 1) + (re << 3) + (c - '0'), c = Get_Char();
 212              		.loc 2 24 2
 213 00f9 EBD0     		jmp	.L8
 214              	.L10:
  26:../../code/code//.cpp **** 	return re;
 215              		.loc 2 26 9
 216 00fb 8B45F8   		movl	-8(%rbp), %eax
  27:../../code/code//.cpp **** }
 217              		.loc 2 27 1
 218 00fe 4883C430 		addq	$48, %rsp
 219 0102 5D       		popq	%rbp
 220              		.cfi_restore 6
 221              		.cfi_def_cfa 7, 8
 222 0103 C3       		ret
 223              		.cfi_endproc
 224              	.LFE45:
 225              		.seh_endproc
 227              		.section .rdata,"dr"
 228              	.LC0:
 229 0004 256400   		.ascii "%d\0"
 230 0007 00000000 		.text
 230      00000000 
 230      00
 231              		.globl	main
 233              		.seh_proc	main
 234              	main:
 235              	.LFB46:
  28:../../code/code//.cpp **** 
  29:../../code/code//.cpp **** int main()
  30:../../code/code//.cpp **** {
 236              		.loc 2 30 1
 237              		.cfi_startproc
 238 0104 55       		pushq	%rbp
 239              		.seh_pushreg	%rbp
 240              		.cfi_def_cfa_offset 16
 241              		.cfi_offset 6, -16
 242 0105 4889E5   		movq	%rsp, %rbp
 243              		.seh_setframe	%rbp, 0
 244              		.cfi_def_cfa_register 6
 245 0108 4883EC30 		subq	$48, %rsp
 246              		.seh_stackalloc	48
 247              		.seh_endprologue
 248              		.loc 2 30 1
 249 010c E8000000 		call	__main
 249      00
 250              	.LVL2:
  31:../../code/code//.cpp **** 	int a = Get_Int();
 251              		.loc 2 31 17
 252 0111 E888FFFF 		call	_Z7Get_Intv
 252      FF
 253 0116 8945FC   		movl	%eax, -4(%rbp)
  32:../../code/code//.cpp **** 	printf("%d", a);
 254              		.loc 2 32 8
 255 0119 8B45FC   		movl	-4(%rbp), %eax
 256 011c 89C2     		movl	%eax, %edx
 257 011e 488D0D04 		leaq	.LC0(%rip), %rcx
 257      000000
 258 0125 E8000000 		call	_Z6printfPKcz
 258      00
  33:../../code/code//.cpp **** 	return 0;
 259              		.loc 2 33 9
 260 012a B8000000 		movl	$0, %eax
 260      00
  34:../../code/code//.cpp **** }...
 261              		.loc 2 34 1
 262 012f 4883C430 		addq	$48, %rsp
 263 0133 5D       		popq	%rbp
 264              		.cfi_restore 6
 265              		.cfi_def_cfa 7, 8
 266 0134 C3       		ret
 267              		.cfi_endproc
 268              	.LFE46:
 269              		.seh_endproc
 270              	.Letext0:
 271              		.file 3 "C:/Program Files/mingw-w64/x86_64-8.1.0-win32-seh-rt_v6-rev0/mingw64/lib/gcc/x86_64-w64-m
 272              		.file 4 "C:/Program Files/mingw-w64/x86_64-8.1.0-win32-seh-rt_v6-rev0/mingw64/lib/gcc/x86_64-w64-m
 273              		.file 5 "C:/Program Files/mingw-w64/x86_64-8.1.0-win32-seh-rt_v6-rev0/mingw64/x86_64-w64-mingw32/i
 274              		.file 6 "<built-in>"