   1              		.file	"tria.cpp"
   2              		.text
   3              	.Ltext0:
   4              		.cfi_sections	.debug_frame
   5              		.section	.text$_Z5scanfPKcz,"x"
   6              		.linkonce discard
   7              		.globl	_Z5scanfPKcz
   9              		.seh_proc	_Z5scanfPKcz
  10              	_Z5scanfPKcz:
  11              	.LFB2:
  12              		.file 1 "C:/Program Files/mingw-w64/x86_64-8.1.0-win32-seh-rt_v6-rev0/mingw64/x86_64-w64-mingw32/i
   1:C:/Program Files/mingw-w64/x86_64-8.1.0-win32-seh-rt_v6-rev0/mingw64/x86_64-w64-mingw32/include\stdio.h **** /**
   2:C:/Program Files/mingw-w64/x86_64-8.1.0-win32-seh-rt_v6-rev0/mingw64/x86_64-w64-mingw32/include\stdio.h ****  * This file has no copyright assigned and is placed in the Public Domain.
   3:C:/Program Files/mingw-w64/x86_64-8.1.0-win32-seh-rt_v6-rev0/mingw64/x86_64-w64-mingw32/include\stdio.h ****  * This file is part of the mingw-w64 runtime package.
   4:C:/Program Files/mingw-w64/x86_64-8.1.0-win32-seh-rt_v6-rev0/mingw64/x86_64-w64-mingw32/include\stdio.h ****  * No warranty is given; refer to the file DISCLAIMER.PD within this package.
   5:C:/Program Files/mingw-w64/x86_64-8.1.0-win32-seh-rt_v6-rev0/mingw64/x86_64-w64-mingw32/include\stdio.h ****  */
   6:C:/Program Files/mingw-w64/x86_64-8.1.0-win32-seh-rt_v6-rev0/mingw64/x86_64-w64-mingw32/include\stdio.h **** #ifndef _INC_STDIO
   7:C:/Program Files/mingw-w64/x86_64-8.1.0-win32-seh-rt_v6-rev0/mingw64/x86_64-w64-mingw32/include\stdio.h **** #define _INC_STDIO
   8:C:/Program Files/mingw-w64/x86_64-8.1.0-win32-seh-rt_v6-rev0/mingw64/x86_64-w64-mingw32/include\stdio.h **** 
   9:C:/Program Files/mingw-w64/x86_64-8.1.0-win32-seh-rt_v6-rev0/mingw64/x86_64-w64-mingw32/include\stdio.h **** #include <crtdefs.h>
  10:C:/Program Files/mingw-w64/x86_64-8.1.0-win32-seh-rt_v6-rev0/mingw64/x86_64-w64-mingw32/include\stdio.h **** 
  11:C:/Program Files/mingw-w64/x86_64-8.1.0-win32-seh-rt_v6-rev0/mingw64/x86_64-w64-mingw32/include\stdio.h **** #include <_mingw_print_push.h>
  12:C:/Program Files/mingw-w64/x86_64-8.1.0-win32-seh-rt_v6-rev0/mingw64/x86_64-w64-mingw32/include\stdio.h **** 
  13:C:/Program Files/mingw-w64/x86_64-8.1.0-win32-seh-rt_v6-rev0/mingw64/x86_64-w64-mingw32/include\stdio.h **** #pragma pack(push,_CRT_PACKING)
  14:C:/Program Files/mingw-w64/x86_64-8.1.0-win32-seh-rt_v6-rev0/mingw64/x86_64-w64-mingw32/include\stdio.h **** 
  15:C:/Program Files/mingw-w64/x86_64-8.1.0-win32-seh-rt_v6-rev0/mingw64/x86_64-w64-mingw32/include\stdio.h **** #ifdef __cplusplus
  16:C:/Program Files/mingw-w64/x86_64-8.1.0-win32-seh-rt_v6-rev0/mingw64/x86_64-w64-mingw32/include\stdio.h **** extern "C" {
  17:C:/Program Files/mingw-w64/x86_64-8.1.0-win32-seh-rt_v6-rev0/mingw64/x86_64-w64-mingw32/include\stdio.h **** #endif
  18:C:/Program Files/mingw-w64/x86_64-8.1.0-win32-seh-rt_v6-rev0/mingw64/x86_64-w64-mingw32/include\stdio.h **** 
  19:C:/Program Files/mingw-w64/x86_64-8.1.0-win32-seh-rt_v6-rev0/mingw64/x86_64-w64-mingw32/include\stdio.h **** #define BUFSIZ 512
  20:C:/Program Files/mingw-w64/x86_64-8.1.0-win32-seh-rt_v6-rev0/mingw64/x86_64-w64-mingw32/include\stdio.h **** #define _NFILE _NSTREAM_
  21:C:/Program Files/mingw-w64/x86_64-8.1.0-win32-seh-rt_v6-rev0/mingw64/x86_64-w64-mingw32/include\stdio.h **** #define _NSTREAM_ 512
  22:C:/Program Files/mingw-w64/x86_64-8.1.0-win32-seh-rt_v6-rev0/mingw64/x86_64-w64-mingw32/include\stdio.h **** #define _IOB_ENTRIES 20
  23:C:/Program Files/mingw-w64/x86_64-8.1.0-win32-seh-rt_v6-rev0/mingw64/x86_64-w64-mingw32/include\stdio.h **** #define EOF (-1)
  24:C:/Program Files/mingw-w64/x86_64-8.1.0-win32-seh-rt_v6-rev0/mingw64/x86_64-w64-mingw32/include\stdio.h **** 
  25:C:/Program Files/mingw-w64/x86_64-8.1.0-win32-seh-rt_v6-rev0/mingw64/x86_64-w64-mingw32/include\stdio.h **** #ifndef _FILE_DEFINED
  26:C:/Program Files/mingw-w64/x86_64-8.1.0-win32-seh-rt_v6-rev0/mingw64/x86_64-w64-mingw32/include\stdio.h ****   struct _iobuf {
  27:C:/Program Files/mingw-w64/x86_64-8.1.0-win32-seh-rt_v6-rev0/mingw64/x86_64-w64-mingw32/include\stdio.h ****     char *_ptr;
  28:C:/Program Files/mingw-w64/x86_64-8.1.0-win32-seh-rt_v6-rev0/mingw64/x86_64-w64-mingw32/include\stdio.h ****     int _cnt;
  29:C:/Program Files/mingw-w64/x86_64-8.1.0-win32-seh-rt_v6-rev0/mingw64/x86_64-w64-mingw32/include\stdio.h ****     char *_base;
  30:C:/Program Files/mingw-w64/x86_64-8.1.0-win32-seh-rt_v6-rev0/mingw64/x86_64-w64-mingw32/include\stdio.h ****     int _flag;
  31:C:/Program Files/mingw-w64/x86_64-8.1.0-win32-seh-rt_v6-rev0/mingw64/x86_64-w64-mingw32/include\stdio.h ****     int _file;
  32:C:/Program Files/mingw-w64/x86_64-8.1.0-win32-seh-rt_v6-rev0/mingw64/x86_64-w64-mingw32/include\stdio.h ****     int _charbuf;
  33:C:/Program Files/mingw-w64/x86_64-8.1.0-win32-seh-rt_v6-rev0/mingw64/x86_64-w64-mingw32/include\stdio.h ****     int _bufsiz;
  34:C:/Program Files/mingw-w64/x86_64-8.1.0-win32-seh-rt_v6-rev0/mingw64/x86_64-w64-mingw32/include\stdio.h ****     char *_tmpfname;
  35:C:/Program Files/mingw-w64/x86_64-8.1.0-win32-seh-rt_v6-rev0/mingw64/x86_64-w64-mingw32/include\stdio.h ****   };
  36:C:/Program Files/mingw-w64/x86_64-8.1.0-win32-seh-rt_v6-rev0/mingw64/x86_64-w64-mingw32/include\stdio.h ****   typedef struct _iobuf FILE;
  37:C:/Program Files/mingw-w64/x86_64-8.1.0-win32-seh-rt_v6-rev0/mingw64/x86_64-w64-mingw32/include\stdio.h **** #define _FILE_DEFINED
  38:C:/Program Files/mingw-w64/x86_64-8.1.0-win32-seh-rt_v6-rev0/mingw64/x86_64-w64-mingw32/include\stdio.h **** #endif
  39:C:/Program Files/mingw-w64/x86_64-8.1.0-win32-seh-rt_v6-rev0/mingw64/x86_64-w64-mingw32/include\stdio.h **** 
  40:C:/Program Files/mingw-w64/x86_64-8.1.0-win32-seh-rt_v6-rev0/mingw64/x86_64-w64-mingw32/include\stdio.h **** #ifdef _POSIX_
  41:C:/Program Files/mingw-w64/x86_64-8.1.0-win32-seh-rt_v6-rev0/mingw64/x86_64-w64-mingw32/include\stdio.h **** #define _P_tmpdir "/"
  42:C:/Program Files/mingw-w64/x86_64-8.1.0-win32-seh-rt_v6-rev0/mingw64/x86_64-w64-mingw32/include\stdio.h **** #define _wP_tmpdir L"/"
  43:C:/Program Files/mingw-w64/x86_64-8.1.0-win32-seh-rt_v6-rev0/mingw64/x86_64-w64-mingw32/include\stdio.h **** #else
  44:C:/Program Files/mingw-w64/x86_64-8.1.0-win32-seh-rt_v6-rev0/mingw64/x86_64-w64-mingw32/include\stdio.h **** #define _P_tmpdir "\\"
  45:C:/Program Files/mingw-w64/x86_64-8.1.0-win32-seh-rt_v6-rev0/mingw64/x86_64-w64-mingw32/include\stdio.h **** #define _wP_tmpdir L"\\"
  46:C:/Program Files/mingw-w64/x86_64-8.1.0-win32-seh-rt_v6-rev0/mingw64/x86_64-w64-mingw32/include\stdio.h **** #endif
  47:C:/Program Files/mingw-w64/x86_64-8.1.0-win32-seh-rt_v6-rev0/mingw64/x86_64-w64-mingw32/include\stdio.h **** 
  48:C:/Program Files/mingw-w64/x86_64-8.1.0-win32-seh-rt_v6-rev0/mingw64/x86_64-w64-mingw32/include\stdio.h **** #define L_tmpnam (sizeof(_P_tmpdir) + 12)
  49:C:/Program Files/mingw-w64/x86_64-8.1.0-win32-seh-rt_v6-rev0/mingw64/x86_64-w64-mingw32/include\stdio.h **** 
  50:C:/Program Files/mingw-w64/x86_64-8.1.0-win32-seh-rt_v6-rev0/mingw64/x86_64-w64-mingw32/include\stdio.h **** #ifdef _POSIX_
  51:C:/Program Files/mingw-w64/x86_64-8.1.0-win32-seh-rt_v6-rev0/mingw64/x86_64-w64-mingw32/include\stdio.h **** #define L_ctermid 9
  52:C:/Program Files/mingw-w64/x86_64-8.1.0-win32-seh-rt_v6-rev0/mingw64/x86_64-w64-mingw32/include\stdio.h **** #define L_cuserid 32
  53:C:/Program Files/mingw-w64/x86_64-8.1.0-win32-seh-rt_v6-rev0/mingw64/x86_64-w64-mingw32/include\stdio.h **** #endif
  54:C:/Program Files/mingw-w64/x86_64-8.1.0-win32-seh-rt_v6-rev0/mingw64/x86_64-w64-mingw32/include\stdio.h **** 
  55:C:/Program Files/mingw-w64/x86_64-8.1.0-win32-seh-rt_v6-rev0/mingw64/x86_64-w64-mingw32/include\stdio.h **** #define SEEK_CUR 1
  56:C:/Program Files/mingw-w64/x86_64-8.1.0-win32-seh-rt_v6-rev0/mingw64/x86_64-w64-mingw32/include\stdio.h **** #define SEEK_END 2
  57:C:/Program Files/mingw-w64/x86_64-8.1.0-win32-seh-rt_v6-rev0/mingw64/x86_64-w64-mingw32/include\stdio.h **** #define SEEK_SET 0
  58:C:/Program Files/mingw-w64/x86_64-8.1.0-win32-seh-rt_v6-rev0/mingw64/x86_64-w64-mingw32/include\stdio.h **** 
  59:C:/Program Files/mingw-w64/x86_64-8.1.0-win32-seh-rt_v6-rev0/mingw64/x86_64-w64-mingw32/include\stdio.h **** #define	STDIN_FILENO	0
  60:C:/Program Files/mingw-w64/x86_64-8.1.0-win32-seh-rt_v6-rev0/mingw64/x86_64-w64-mingw32/include\stdio.h **** #define	STDOUT_FILENO	1
  61:C:/Program Files/mingw-w64/x86_64-8.1.0-win32-seh-rt_v6-rev0/mingw64/x86_64-w64-mingw32/include\stdio.h **** #define	STDERR_FILENO	2
  62:C:/Program Files/mingw-w64/x86_64-8.1.0-win32-seh-rt_v6-rev0/mingw64/x86_64-w64-mingw32/include\stdio.h **** 
  63:C:/Program Files/mingw-w64/x86_64-8.1.0-win32-seh-rt_v6-rev0/mingw64/x86_64-w64-mingw32/include\stdio.h **** #define FILENAME_MAX 260
  64:C:/Program Files/mingw-w64/x86_64-8.1.0-win32-seh-rt_v6-rev0/mingw64/x86_64-w64-mingw32/include\stdio.h **** #define FOPEN_MAX 20
  65:C:/Program Files/mingw-w64/x86_64-8.1.0-win32-seh-rt_v6-rev0/mingw64/x86_64-w64-mingw32/include\stdio.h **** #define _SYS_OPEN 20
  66:C:/Program Files/mingw-w64/x86_64-8.1.0-win32-seh-rt_v6-rev0/mingw64/x86_64-w64-mingw32/include\stdio.h **** #define TMP_MAX 32767
  67:C:/Program Files/mingw-w64/x86_64-8.1.0-win32-seh-rt_v6-rev0/mingw64/x86_64-w64-mingw32/include\stdio.h **** 
  68:C:/Program Files/mingw-w64/x86_64-8.1.0-win32-seh-rt_v6-rev0/mingw64/x86_64-w64-mingw32/include\stdio.h **** #ifndef NULL
  69:C:/Program Files/mingw-w64/x86_64-8.1.0-win32-seh-rt_v6-rev0/mingw64/x86_64-w64-mingw32/include\stdio.h **** #ifdef __cplusplus
  70:C:/Program Files/mingw-w64/x86_64-8.1.0-win32-seh-rt_v6-rev0/mingw64/x86_64-w64-mingw32/include\stdio.h **** #ifndef _WIN64
  71:C:/Program Files/mingw-w64/x86_64-8.1.0-win32-seh-rt_v6-rev0/mingw64/x86_64-w64-mingw32/include\stdio.h **** #define NULL 0
  72:C:/Program Files/mingw-w64/x86_64-8.1.0-win32-seh-rt_v6-rev0/mingw64/x86_64-w64-mingw32/include\stdio.h **** #else
  73:C:/Program Files/mingw-w64/x86_64-8.1.0-win32-seh-rt_v6-rev0/mingw64/x86_64-w64-mingw32/include\stdio.h **** #define NULL 0LL
  74:C:/Program Files/mingw-w64/x86_64-8.1.0-win32-seh-rt_v6-rev0/mingw64/x86_64-w64-mingw32/include\stdio.h **** #endif  /* W64 */
  75:C:/Program Files/mingw-w64/x86_64-8.1.0-win32-seh-rt_v6-rev0/mingw64/x86_64-w64-mingw32/include\stdio.h **** #else
  76:C:/Program Files/mingw-w64/x86_64-8.1.0-win32-seh-rt_v6-rev0/mingw64/x86_64-w64-mingw32/include\stdio.h **** #define NULL ((void *)0)
  77:C:/Program Files/mingw-w64/x86_64-8.1.0-win32-seh-rt_v6-rev0/mingw64/x86_64-w64-mingw32/include\stdio.h **** #endif
  78:C:/Program Files/mingw-w64/x86_64-8.1.0-win32-seh-rt_v6-rev0/mingw64/x86_64-w64-mingw32/include\stdio.h **** #endif
  79:C:/Program Files/mingw-w64/x86_64-8.1.0-win32-seh-rt_v6-rev0/mingw64/x86_64-w64-mingw32/include\stdio.h **** 
  80:C:/Program Files/mingw-w64/x86_64-8.1.0-win32-seh-rt_v6-rev0/mingw64/x86_64-w64-mingw32/include\stdio.h **** #include <_mingw_off_t.h>
  81:C:/Program Files/mingw-w64/x86_64-8.1.0-win32-seh-rt_v6-rev0/mingw64/x86_64-w64-mingw32/include\stdio.h **** 
  82:C:/Program Files/mingw-w64/x86_64-8.1.0-win32-seh-rt_v6-rev0/mingw64/x86_64-w64-mingw32/include\stdio.h **** _CRTIMP FILE *__cdecl __acrt_iob_func(unsigned index);
  83:C:/Program Files/mingw-w64/x86_64-8.1.0-win32-seh-rt_v6-rev0/mingw64/x86_64-w64-mingw32/include\stdio.h **** #ifndef _STDIO_DEFINED
  84:C:/Program Files/mingw-w64/x86_64-8.1.0-win32-seh-rt_v6-rev0/mingw64/x86_64-w64-mingw32/include\stdio.h **** #ifdef _WIN64
  85:C:/Program Files/mingw-w64/x86_64-8.1.0-win32-seh-rt_v6-rev0/mingw64/x86_64-w64-mingw32/include\stdio.h ****   _CRTIMP FILE *__cdecl __iob_func(void);
  86:C:/Program Files/mingw-w64/x86_64-8.1.0-win32-seh-rt_v6-rev0/mingw64/x86_64-w64-mingw32/include\stdio.h **** #define _iob  __iob_func()
  87:C:/Program Files/mingw-w64/x86_64-8.1.0-win32-seh-rt_v6-rev0/mingw64/x86_64-w64-mingw32/include\stdio.h **** #else
  88:C:/Program Files/mingw-w64/x86_64-8.1.0-win32-seh-rt_v6-rev0/mingw64/x86_64-w64-mingw32/include\stdio.h **** #ifdef _MSVCRT_
  89:C:/Program Files/mingw-w64/x86_64-8.1.0-win32-seh-rt_v6-rev0/mingw64/x86_64-w64-mingw32/include\stdio.h **** extern FILE _iob[];	/* A pointer to an array of FILE */
  90:C:/Program Files/mingw-w64/x86_64-8.1.0-win32-seh-rt_v6-rev0/mingw64/x86_64-w64-mingw32/include\stdio.h **** #define __iob_func()	(_iob)
  91:C:/Program Files/mingw-w64/x86_64-8.1.0-win32-seh-rt_v6-rev0/mingw64/x86_64-w64-mingw32/include\stdio.h **** #else
  92:C:/Program Files/mingw-w64/x86_64-8.1.0-win32-seh-rt_v6-rev0/mingw64/x86_64-w64-mingw32/include\stdio.h **** extern FILE (* __MINGW_IMP_SYMBOL(_iob))[];	/* A pointer to an array of FILE */
  93:C:/Program Files/mingw-w64/x86_64-8.1.0-win32-seh-rt_v6-rev0/mingw64/x86_64-w64-mingw32/include\stdio.h **** #define __iob_func()	(* __MINGW_IMP_SYMBOL(_iob))
  94:C:/Program Files/mingw-w64/x86_64-8.1.0-win32-seh-rt_v6-rev0/mingw64/x86_64-w64-mingw32/include\stdio.h **** #define _iob __iob_func()
  95:C:/Program Files/mingw-w64/x86_64-8.1.0-win32-seh-rt_v6-rev0/mingw64/x86_64-w64-mingw32/include\stdio.h **** #endif
  96:C:/Program Files/mingw-w64/x86_64-8.1.0-win32-seh-rt_v6-rev0/mingw64/x86_64-w64-mingw32/include\stdio.h **** #endif
  97:C:/Program Files/mingw-w64/x86_64-8.1.0-win32-seh-rt_v6-rev0/mingw64/x86_64-w64-mingw32/include\stdio.h **** #endif
  98:C:/Program Files/mingw-w64/x86_64-8.1.0-win32-seh-rt_v6-rev0/mingw64/x86_64-w64-mingw32/include\stdio.h **** 
  99:C:/Program Files/mingw-w64/x86_64-8.1.0-win32-seh-rt_v6-rev0/mingw64/x86_64-w64-mingw32/include\stdio.h **** #ifndef _FPOS_T_DEFINED
 100:C:/Program Files/mingw-w64/x86_64-8.1.0-win32-seh-rt_v6-rev0/mingw64/x86_64-w64-mingw32/include\stdio.h **** #define _FPOS_T_DEFINED
 101:C:/Program Files/mingw-w64/x86_64-8.1.0-win32-seh-rt_v6-rev0/mingw64/x86_64-w64-mingw32/include\stdio.h **** #undef _FPOSOFF
 102:C:/Program Files/mingw-w64/x86_64-8.1.0-win32-seh-rt_v6-rev0/mingw64/x86_64-w64-mingw32/include\stdio.h **** 
 103:C:/Program Files/mingw-w64/x86_64-8.1.0-win32-seh-rt_v6-rev0/mingw64/x86_64-w64-mingw32/include\stdio.h **** #if (!defined(NO_OLDNAMES) || defined(__GNUC__))
 104:C:/Program Files/mingw-w64/x86_64-8.1.0-win32-seh-rt_v6-rev0/mingw64/x86_64-w64-mingw32/include\stdio.h ****   __MINGW_EXTENSION typedef __int64 fpos_t;
 105:C:/Program Files/mingw-w64/x86_64-8.1.0-win32-seh-rt_v6-rev0/mingw64/x86_64-w64-mingw32/include\stdio.h **** #define _FPOSOFF(fp) ((long)(fp))
 106:C:/Program Files/mingw-w64/x86_64-8.1.0-win32-seh-rt_v6-rev0/mingw64/x86_64-w64-mingw32/include\stdio.h **** #else
 107:C:/Program Files/mingw-w64/x86_64-8.1.0-win32-seh-rt_v6-rev0/mingw64/x86_64-w64-mingw32/include\stdio.h ****   __MINGW_EXTENSION typedef long long fpos_t;
 108:C:/Program Files/mingw-w64/x86_64-8.1.0-win32-seh-rt_v6-rev0/mingw64/x86_64-w64-mingw32/include\stdio.h **** #define _FPOSOFF(fp) ((long)(fp))
 109:C:/Program Files/mingw-w64/x86_64-8.1.0-win32-seh-rt_v6-rev0/mingw64/x86_64-w64-mingw32/include\stdio.h **** #endif
 110:C:/Program Files/mingw-w64/x86_64-8.1.0-win32-seh-rt_v6-rev0/mingw64/x86_64-w64-mingw32/include\stdio.h **** 
 111:C:/Program Files/mingw-w64/x86_64-8.1.0-win32-seh-rt_v6-rev0/mingw64/x86_64-w64-mingw32/include\stdio.h **** #endif
 112:C:/Program Files/mingw-w64/x86_64-8.1.0-win32-seh-rt_v6-rev0/mingw64/x86_64-w64-mingw32/include\stdio.h **** 
 113:C:/Program Files/mingw-w64/x86_64-8.1.0-win32-seh-rt_v6-rev0/mingw64/x86_64-w64-mingw32/include\stdio.h **** #ifndef _STDSTREAM_DEFINED
 114:C:/Program Files/mingw-w64/x86_64-8.1.0-win32-seh-rt_v6-rev0/mingw64/x86_64-w64-mingw32/include\stdio.h **** #define _STDSTREAM_DEFINED
 115:C:/Program Files/mingw-w64/x86_64-8.1.0-win32-seh-rt_v6-rev0/mingw64/x86_64-w64-mingw32/include\stdio.h **** 
 116:C:/Program Files/mingw-w64/x86_64-8.1.0-win32-seh-rt_v6-rev0/mingw64/x86_64-w64-mingw32/include\stdio.h **** #define stdin (__acrt_iob_func(0))
 117:C:/Program Files/mingw-w64/x86_64-8.1.0-win32-seh-rt_v6-rev0/mingw64/x86_64-w64-mingw32/include\stdio.h **** #define stdout (__acrt_iob_func(1))
 118:C:/Program Files/mingw-w64/x86_64-8.1.0-win32-seh-rt_v6-rev0/mingw64/x86_64-w64-mingw32/include\stdio.h **** #define stderr (__acrt_iob_func(2))
 119:C:/Program Files/mingw-w64/x86_64-8.1.0-win32-seh-rt_v6-rev0/mingw64/x86_64-w64-mingw32/include\stdio.h **** #endif
 120:C:/Program Files/mingw-w64/x86_64-8.1.0-win32-seh-rt_v6-rev0/mingw64/x86_64-w64-mingw32/include\stdio.h **** 
 121:C:/Program Files/mingw-w64/x86_64-8.1.0-win32-seh-rt_v6-rev0/mingw64/x86_64-w64-mingw32/include\stdio.h **** #define _IOREAD 0x0001
 122:C:/Program Files/mingw-w64/x86_64-8.1.0-win32-seh-rt_v6-rev0/mingw64/x86_64-w64-mingw32/include\stdio.h **** #define _IOWRT 0x0002
 123:C:/Program Files/mingw-w64/x86_64-8.1.0-win32-seh-rt_v6-rev0/mingw64/x86_64-w64-mingw32/include\stdio.h **** 
 124:C:/Program Files/mingw-w64/x86_64-8.1.0-win32-seh-rt_v6-rev0/mingw64/x86_64-w64-mingw32/include\stdio.h **** #define _IOFBF 0x0000
 125:C:/Program Files/mingw-w64/x86_64-8.1.0-win32-seh-rt_v6-rev0/mingw64/x86_64-w64-mingw32/include\stdio.h **** #define _IOLBF 0x0040
 126:C:/Program Files/mingw-w64/x86_64-8.1.0-win32-seh-rt_v6-rev0/mingw64/x86_64-w64-mingw32/include\stdio.h **** #define _IONBF 0x0004
 127:C:/Program Files/mingw-w64/x86_64-8.1.0-win32-seh-rt_v6-rev0/mingw64/x86_64-w64-mingw32/include\stdio.h **** 
 128:C:/Program Files/mingw-w64/x86_64-8.1.0-win32-seh-rt_v6-rev0/mingw64/x86_64-w64-mingw32/include\stdio.h **** #define _IOMYBUF 0x0008
 129:C:/Program Files/mingw-w64/x86_64-8.1.0-win32-seh-rt_v6-rev0/mingw64/x86_64-w64-mingw32/include\stdio.h **** #define _IOEOF 0x0010
 130:C:/Program Files/mingw-w64/x86_64-8.1.0-win32-seh-rt_v6-rev0/mingw64/x86_64-w64-mingw32/include\stdio.h **** #define _IOERR 0x0020
 131:C:/Program Files/mingw-w64/x86_64-8.1.0-win32-seh-rt_v6-rev0/mingw64/x86_64-w64-mingw32/include\stdio.h **** #define _IOSTRG 0x0040
 132:C:/Program Files/mingw-w64/x86_64-8.1.0-win32-seh-rt_v6-rev0/mingw64/x86_64-w64-mingw32/include\stdio.h **** #define _IORW 0x0080
 133:C:/Program Files/mingw-w64/x86_64-8.1.0-win32-seh-rt_v6-rev0/mingw64/x86_64-w64-mingw32/include\stdio.h **** #ifdef _POSIX_
 134:C:/Program Files/mingw-w64/x86_64-8.1.0-win32-seh-rt_v6-rev0/mingw64/x86_64-w64-mingw32/include\stdio.h **** #define _IOAPPEND 0x0200
 135:C:/Program Files/mingw-w64/x86_64-8.1.0-win32-seh-rt_v6-rev0/mingw64/x86_64-w64-mingw32/include\stdio.h **** #endif
 136:C:/Program Files/mingw-w64/x86_64-8.1.0-win32-seh-rt_v6-rev0/mingw64/x86_64-w64-mingw32/include\stdio.h **** 
 137:C:/Program Files/mingw-w64/x86_64-8.1.0-win32-seh-rt_v6-rev0/mingw64/x86_64-w64-mingw32/include\stdio.h **** #define _TWO_DIGIT_EXPONENT 0x1
 138:C:/Program Files/mingw-w64/x86_64-8.1.0-win32-seh-rt_v6-rev0/mingw64/x86_64-w64-mingw32/include\stdio.h **** 
 139:C:/Program Files/mingw-w64/x86_64-8.1.0-win32-seh-rt_v6-rev0/mingw64/x86_64-w64-mingw32/include\stdio.h **** #if !defined(_UCRTBASE_STDIO_DEFINED) && __MSVCRT_VERSION__ >= 0x1400
 140:C:/Program Files/mingw-w64/x86_64-8.1.0-win32-seh-rt_v6-rev0/mingw64/x86_64-w64-mingw32/include\stdio.h **** #define _UCRTBASE_STDIO_DEFINED
 141:C:/Program Files/mingw-w64/x86_64-8.1.0-win32-seh-rt_v6-rev0/mingw64/x86_64-w64-mingw32/include\stdio.h **** 
 142:C:/Program Files/mingw-w64/x86_64-8.1.0-win32-seh-rt_v6-rev0/mingw64/x86_64-w64-mingw32/include\stdio.h **** #define UCRTBASE_PRINTF_LEGACY_VSPRINTF_NULL_TERMINATION (0x0001)
 143:C:/Program Files/mingw-w64/x86_64-8.1.0-win32-seh-rt_v6-rev0/mingw64/x86_64-w64-mingw32/include\stdio.h **** #define UCRTBASE_PRINTF_STANDARD_SNPRINTF_BEHAVIOUR      (0x0002)
 144:C:/Program Files/mingw-w64/x86_64-8.1.0-win32-seh-rt_v6-rev0/mingw64/x86_64-w64-mingw32/include\stdio.h **** #define UCRTBASE_PRINTF_LEGACY_WIDE_SPECIFIERS           (0x0004)
 145:C:/Program Files/mingw-w64/x86_64-8.1.0-win32-seh-rt_v6-rev0/mingw64/x86_64-w64-mingw32/include\stdio.h **** #define UCRTBASE_PRINTF_LEGACY_MSVCRT_COMPATIBILITY      (0x0008)
 146:C:/Program Files/mingw-w64/x86_64-8.1.0-win32-seh-rt_v6-rev0/mingw64/x86_64-w64-mingw32/include\stdio.h **** #define UCRTBASE_PRINTF_LEGACY_THREE_DIGIT_EXPONENTS     (0x0010)
 147:C:/Program Files/mingw-w64/x86_64-8.1.0-win32-seh-rt_v6-rev0/mingw64/x86_64-w64-mingw32/include\stdio.h **** 
 148:C:/Program Files/mingw-w64/x86_64-8.1.0-win32-seh-rt_v6-rev0/mingw64/x86_64-w64-mingw32/include\stdio.h **** #define UCRTBASE_SCANF_SECURECRT                         (0x0001)
 149:C:/Program Files/mingw-w64/x86_64-8.1.0-win32-seh-rt_v6-rev0/mingw64/x86_64-w64-mingw32/include\stdio.h **** #define UCRTBASE_SCANF_LEGACY_WIDE_SPECIFIERS            (0x0002)
 150:C:/Program Files/mingw-w64/x86_64-8.1.0-win32-seh-rt_v6-rev0/mingw64/x86_64-w64-mingw32/include\stdio.h **** #define UCRTBASE_SCANF_LEGACY_MSVCRT_COMPATIBILITY       (0x0004)
 151:C:/Program Files/mingw-w64/x86_64-8.1.0-win32-seh-rt_v6-rev0/mingw64/x86_64-w64-mingw32/include\stdio.h **** 
 152:C:/Program Files/mingw-w64/x86_64-8.1.0-win32-seh-rt_v6-rev0/mingw64/x86_64-w64-mingw32/include\stdio.h **** // Default wide printfs and scanfs to the standard mode
 153:C:/Program Files/mingw-w64/x86_64-8.1.0-win32-seh-rt_v6-rev0/mingw64/x86_64-w64-mingw32/include\stdio.h **** #ifndef UCRTBASE_PRINTF_DEFAULT_WIDE
 154:C:/Program Files/mingw-w64/x86_64-8.1.0-win32-seh-rt_v6-rev0/mingw64/x86_64-w64-mingw32/include\stdio.h **** #define UCRTBASE_PRINTF_DEFAULT_WIDE 0
 155:C:/Program Files/mingw-w64/x86_64-8.1.0-win32-seh-rt_v6-rev0/mingw64/x86_64-w64-mingw32/include\stdio.h **** #endif
 156:C:/Program Files/mingw-w64/x86_64-8.1.0-win32-seh-rt_v6-rev0/mingw64/x86_64-w64-mingw32/include\stdio.h **** #ifndef UCRTBASE_SCANF_DEFAULT_WIDE
 157:C:/Program Files/mingw-w64/x86_64-8.1.0-win32-seh-rt_v6-rev0/mingw64/x86_64-w64-mingw32/include\stdio.h **** #define UCRTBASE_SCANF_DEFAULT_WIDE 0
 158:C:/Program Files/mingw-w64/x86_64-8.1.0-win32-seh-rt_v6-rev0/mingw64/x86_64-w64-mingw32/include\stdio.h **** #endif
 159:C:/Program Files/mingw-w64/x86_64-8.1.0-win32-seh-rt_v6-rev0/mingw64/x86_64-w64-mingw32/include\stdio.h **** #endif
 160:C:/Program Files/mingw-w64/x86_64-8.1.0-win32-seh-rt_v6-rev0/mingw64/x86_64-w64-mingw32/include\stdio.h **** 
 161:C:/Program Files/mingw-w64/x86_64-8.1.0-win32-seh-rt_v6-rev0/mingw64/x86_64-w64-mingw32/include\stdio.h **** #ifndef _STDIO_DEFINED
 162:C:/Program Files/mingw-w64/x86_64-8.1.0-win32-seh-rt_v6-rev0/mingw64/x86_64-w64-mingw32/include\stdio.h **** extern
 163:C:/Program Files/mingw-w64/x86_64-8.1.0-win32-seh-rt_v6-rev0/mingw64/x86_64-w64-mingw32/include\stdio.h ****   __attribute__((__format__ (gnu_scanf, 2, 3))) __MINGW_ATTRIB_NONNULL(2)
 164:C:/Program Files/mingw-w64/x86_64-8.1.0-win32-seh-rt_v6-rev0/mingw64/x86_64-w64-mingw32/include\stdio.h ****   int __cdecl __mingw_sscanf(const char * __restrict__ _Src,const char * __restrict__ _Format,...);
 165:C:/Program Files/mingw-w64/x86_64-8.1.0-win32-seh-rt_v6-rev0/mingw64/x86_64-w64-mingw32/include\stdio.h **** extern
 166:C:/Program Files/mingw-w64/x86_64-8.1.0-win32-seh-rt_v6-rev0/mingw64/x86_64-w64-mingw32/include\stdio.h ****   __attribute__((__format__ (gnu_scanf, 2, 0))) __MINGW_ATTRIB_NONNULL(2)
 167:C:/Program Files/mingw-w64/x86_64-8.1.0-win32-seh-rt_v6-rev0/mingw64/x86_64-w64-mingw32/include\stdio.h ****   int __cdecl __mingw_vsscanf (const char * __restrict__ _Str,const char * __restrict__ Format,va_l
 168:C:/Program Files/mingw-w64/x86_64-8.1.0-win32-seh-rt_v6-rev0/mingw64/x86_64-w64-mingw32/include\stdio.h **** extern
 169:C:/Program Files/mingw-w64/x86_64-8.1.0-win32-seh-rt_v6-rev0/mingw64/x86_64-w64-mingw32/include\stdio.h ****   __attribute__((__format__ (gnu_scanf, 1, 2))) __MINGW_ATTRIB_NONNULL(1)
 170:C:/Program Files/mingw-w64/x86_64-8.1.0-win32-seh-rt_v6-rev0/mingw64/x86_64-w64-mingw32/include\stdio.h ****   int __cdecl __mingw_scanf(const char * __restrict__ _Format,...);
 171:C:/Program Files/mingw-w64/x86_64-8.1.0-win32-seh-rt_v6-rev0/mingw64/x86_64-w64-mingw32/include\stdio.h **** extern
 172:C:/Program Files/mingw-w64/x86_64-8.1.0-win32-seh-rt_v6-rev0/mingw64/x86_64-w64-mingw32/include\stdio.h ****   __attribute__((__format__ (gnu_scanf, 1, 0))) __MINGW_ATTRIB_NONNULL(1)
 173:C:/Program Files/mingw-w64/x86_64-8.1.0-win32-seh-rt_v6-rev0/mingw64/x86_64-w64-mingw32/include\stdio.h ****   int __cdecl __mingw_vscanf(const char * __restrict__ Format, va_list argp);
 174:C:/Program Files/mingw-w64/x86_64-8.1.0-win32-seh-rt_v6-rev0/mingw64/x86_64-w64-mingw32/include\stdio.h **** extern
 175:C:/Program Files/mingw-w64/x86_64-8.1.0-win32-seh-rt_v6-rev0/mingw64/x86_64-w64-mingw32/include\stdio.h ****   __attribute__((__format__ (gnu_scanf, 2, 3))) __MINGW_ATTRIB_NONNULL(2)
 176:C:/Program Files/mingw-w64/x86_64-8.1.0-win32-seh-rt_v6-rev0/mingw64/x86_64-w64-mingw32/include\stdio.h ****   int __cdecl __mingw_fscanf(FILE * __restrict__ _File,const char * __restrict__ _Format,...);
 177:C:/Program Files/mingw-w64/x86_64-8.1.0-win32-seh-rt_v6-rev0/mingw64/x86_64-w64-mingw32/include\stdio.h **** extern
 178:C:/Program Files/mingw-w64/x86_64-8.1.0-win32-seh-rt_v6-rev0/mingw64/x86_64-w64-mingw32/include\stdio.h ****   __attribute__((__format__ (gnu_scanf, 2, 0))) __MINGW_ATTRIB_NONNULL(2)
 179:C:/Program Files/mingw-w64/x86_64-8.1.0-win32-seh-rt_v6-rev0/mingw64/x86_64-w64-mingw32/include\stdio.h ****   int __cdecl __mingw_vfscanf (FILE * __restrict__ fp, const char * __restrict__ Format,va_list arg
 180:C:/Program Files/mingw-w64/x86_64-8.1.0-win32-seh-rt_v6-rev0/mingw64/x86_64-w64-mingw32/include\stdio.h **** 
 181:C:/Program Files/mingw-w64/x86_64-8.1.0-win32-seh-rt_v6-rev0/mingw64/x86_64-w64-mingw32/include\stdio.h **** extern
 182:C:/Program Files/mingw-w64/x86_64-8.1.0-win32-seh-rt_v6-rev0/mingw64/x86_64-w64-mingw32/include\stdio.h ****   __attribute__((__format__ (gnu_printf, 3, 0))) __MINGW_ATTRIB_NONNULL(3)
 183:C:/Program Files/mingw-w64/x86_64-8.1.0-win32-seh-rt_v6-rev0/mingw64/x86_64-w64-mingw32/include\stdio.h ****   int __cdecl __mingw_vsnprintf(char * __restrict__ _DstBuf,size_t _MaxCount,const char * __restric
 184:C:/Program Files/mingw-w64/x86_64-8.1.0-win32-seh-rt_v6-rev0/mingw64/x86_64-w64-mingw32/include\stdio.h ****                                va_list _ArgList);
 185:C:/Program Files/mingw-w64/x86_64-8.1.0-win32-seh-rt_v6-rev0/mingw64/x86_64-w64-mingw32/include\stdio.h **** extern
 186:C:/Program Files/mingw-w64/x86_64-8.1.0-win32-seh-rt_v6-rev0/mingw64/x86_64-w64-mingw32/include\stdio.h ****   __attribute__((__format__ (gnu_printf, 3, 4))) __MINGW_ATTRIB_NONNULL(3)
 187:C:/Program Files/mingw-w64/x86_64-8.1.0-win32-seh-rt_v6-rev0/mingw64/x86_64-w64-mingw32/include\stdio.h ****   int __cdecl __mingw_snprintf(char * __restrict__ s, size_t n, const char * __restrict__  format, 
 188:C:/Program Files/mingw-w64/x86_64-8.1.0-win32-seh-rt_v6-rev0/mingw64/x86_64-w64-mingw32/include\stdio.h **** extern
 189:C:/Program Files/mingw-w64/x86_64-8.1.0-win32-seh-rt_v6-rev0/mingw64/x86_64-w64-mingw32/include\stdio.h ****   __attribute__((__format__ (gnu_printf, 1, 2))) __MINGW_ATTRIB_NONNULL(1)
 190:C:/Program Files/mingw-w64/x86_64-8.1.0-win32-seh-rt_v6-rev0/mingw64/x86_64-w64-mingw32/include\stdio.h ****   int __cdecl __mingw_printf(const char * __restrict__ , ... ) __MINGW_NOTHROW;
 191:C:/Program Files/mingw-w64/x86_64-8.1.0-win32-seh-rt_v6-rev0/mingw64/x86_64-w64-mingw32/include\stdio.h **** extern
 192:C:/Program Files/mingw-w64/x86_64-8.1.0-win32-seh-rt_v6-rev0/mingw64/x86_64-w64-mingw32/include\stdio.h ****   __attribute__((__format__ (gnu_printf, 1, 0))) __MINGW_ATTRIB_NONNULL(1)
 193:C:/Program Files/mingw-w64/x86_64-8.1.0-win32-seh-rt_v6-rev0/mingw64/x86_64-w64-mingw32/include\stdio.h ****   int __cdecl __mingw_vprintf (const char * __restrict__ , va_list) __MINGW_NOTHROW;
 194:C:/Program Files/mingw-w64/x86_64-8.1.0-win32-seh-rt_v6-rev0/mingw64/x86_64-w64-mingw32/include\stdio.h **** extern
 195:C:/Program Files/mingw-w64/x86_64-8.1.0-win32-seh-rt_v6-rev0/mingw64/x86_64-w64-mingw32/include\stdio.h ****   __attribute__((__format__ (gnu_printf, 2, 3))) __MINGW_ATTRIB_NONNULL(2)
 196:C:/Program Files/mingw-w64/x86_64-8.1.0-win32-seh-rt_v6-rev0/mingw64/x86_64-w64-mingw32/include\stdio.h ****   int __cdecl __mingw_fprintf (FILE * __restrict__ , const char * __restrict__ , ...) __MINGW_NOTHR
 197:C:/Program Files/mingw-w64/x86_64-8.1.0-win32-seh-rt_v6-rev0/mingw64/x86_64-w64-mingw32/include\stdio.h **** extern
 198:C:/Program Files/mingw-w64/x86_64-8.1.0-win32-seh-rt_v6-rev0/mingw64/x86_64-w64-mingw32/include\stdio.h ****   __attribute__((__format__ (gnu_printf, 2, 0))) __MINGW_ATTRIB_NONNULL(2)
 199:C:/Program Files/mingw-w64/x86_64-8.1.0-win32-seh-rt_v6-rev0/mingw64/x86_64-w64-mingw32/include\stdio.h ****   int __cdecl __mingw_vfprintf (FILE * __restrict__ , const char * __restrict__ , va_list) __MINGW_
 200:C:/Program Files/mingw-w64/x86_64-8.1.0-win32-seh-rt_v6-rev0/mingw64/x86_64-w64-mingw32/include\stdio.h **** extern
 201:C:/Program Files/mingw-w64/x86_64-8.1.0-win32-seh-rt_v6-rev0/mingw64/x86_64-w64-mingw32/include\stdio.h ****   __attribute__((__format__ (gnu_printf, 2, 3))) __MINGW_ATTRIB_NONNULL(2)
 202:C:/Program Files/mingw-w64/x86_64-8.1.0-win32-seh-rt_v6-rev0/mingw64/x86_64-w64-mingw32/include\stdio.h ****   int __cdecl __mingw_sprintf (char * __restrict__ , const char * __restrict__ , ...) __MINGW_NOTHR
 203:C:/Program Files/mingw-w64/x86_64-8.1.0-win32-seh-rt_v6-rev0/mingw64/x86_64-w64-mingw32/include\stdio.h **** extern
 204:C:/Program Files/mingw-w64/x86_64-8.1.0-win32-seh-rt_v6-rev0/mingw64/x86_64-w64-mingw32/include\stdio.h ****   __attribute__((__format__ (gnu_printf, 2, 0))) __MINGW_ATTRIB_NONNULL(2)
 205:C:/Program Files/mingw-w64/x86_64-8.1.0-win32-seh-rt_v6-rev0/mingw64/x86_64-w64-mingw32/include\stdio.h ****   int __cdecl __mingw_vsprintf (char * __restrict__ , const char * __restrict__ , va_list) __MINGW_
 206:C:/Program Files/mingw-w64/x86_64-8.1.0-win32-seh-rt_v6-rev0/mingw64/x86_64-w64-mingw32/include\stdio.h **** extern
 207:C:/Program Files/mingw-w64/x86_64-8.1.0-win32-seh-rt_v6-rev0/mingw64/x86_64-w64-mingw32/include\stdio.h ****   __attribute__((__format__ (gnu_printf, 2, 3))) __attribute__((nonnull (1,2)))
 208:C:/Program Files/mingw-w64/x86_64-8.1.0-win32-seh-rt_v6-rev0/mingw64/x86_64-w64-mingw32/include\stdio.h ****   int __cdecl __mingw_asprintf(char ** __restrict__ , const char * __restrict__ , ...) __MINGW_NOTH
 209:C:/Program Files/mingw-w64/x86_64-8.1.0-win32-seh-rt_v6-rev0/mingw64/x86_64-w64-mingw32/include\stdio.h **** extern
 210:C:/Program Files/mingw-w64/x86_64-8.1.0-win32-seh-rt_v6-rev0/mingw64/x86_64-w64-mingw32/include\stdio.h ****   __attribute__((__format__ (gnu_printf, 2, 0))) __attribute__((nonnull (1,2)))
 211:C:/Program Files/mingw-w64/x86_64-8.1.0-win32-seh-rt_v6-rev0/mingw64/x86_64-w64-mingw32/include\stdio.h ****   int __cdecl __mingw_vasprintf(char ** __restrict__ , const char * __restrict__ , va_list) __MINGW
 212:C:/Program Files/mingw-w64/x86_64-8.1.0-win32-seh-rt_v6-rev0/mingw64/x86_64-w64-mingw32/include\stdio.h **** 
 213:C:/Program Files/mingw-w64/x86_64-8.1.0-win32-seh-rt_v6-rev0/mingw64/x86_64-w64-mingw32/include\stdio.h **** #if __MSVCRT_VERSION__ >= 0x1400
 214:C:/Program Files/mingw-w64/x86_64-8.1.0-win32-seh-rt_v6-rev0/mingw64/x86_64-w64-mingw32/include\stdio.h ****   int __cdecl __stdio_common_vsprintf(unsigned __int64 options, char *str, size_t len, const char *
 215:C:/Program Files/mingw-w64/x86_64-8.1.0-win32-seh-rt_v6-rev0/mingw64/x86_64-w64-mingw32/include\stdio.h ****   int __cdecl __stdio_common_vfprintf(unsigned __int64 options, FILE *file, const char *format, _lo
 216:C:/Program Files/mingw-w64/x86_64-8.1.0-win32-seh-rt_v6-rev0/mingw64/x86_64-w64-mingw32/include\stdio.h ****   int __cdecl __stdio_common_vsscanf(unsigned __int64 options, const char *input, size_t length, co
 217:C:/Program Files/mingw-w64/x86_64-8.1.0-win32-seh-rt_v6-rev0/mingw64/x86_64-w64-mingw32/include\stdio.h ****   int __cdecl __stdio_common_vfscanf(unsigned __int64 options, FILE *file, const char *format, _loc
 218:C:/Program Files/mingw-w64/x86_64-8.1.0-win32-seh-rt_v6-rev0/mingw64/x86_64-w64-mingw32/include\stdio.h **** #endif
 219:C:/Program Files/mingw-w64/x86_64-8.1.0-win32-seh-rt_v6-rev0/mingw64/x86_64-w64-mingw32/include\stdio.h **** 
 220:C:/Program Files/mingw-w64/x86_64-8.1.0-win32-seh-rt_v6-rev0/mingw64/x86_64-w64-mingw32/include\stdio.h **** #undef __MINGW_PRINTF_FORMAT
 221:C:/Program Files/mingw-w64/x86_64-8.1.0-win32-seh-rt_v6-rev0/mingw64/x86_64-w64-mingw32/include\stdio.h **** #undef __MINGW_SCANF_FORMAT
 222:C:/Program Files/mingw-w64/x86_64-8.1.0-win32-seh-rt_v6-rev0/mingw64/x86_64-w64-mingw32/include\stdio.h **** 
 223:C:/Program Files/mingw-w64/x86_64-8.1.0-win32-seh-rt_v6-rev0/mingw64/x86_64-w64-mingw32/include\stdio.h **** #if defined(__clang__)
 224:C:/Program Files/mingw-w64/x86_64-8.1.0-win32-seh-rt_v6-rev0/mingw64/x86_64-w64-mingw32/include\stdio.h **** #define __MINGW_PRINTF_FORMAT printf
 225:C:/Program Files/mingw-w64/x86_64-8.1.0-win32-seh-rt_v6-rev0/mingw64/x86_64-w64-mingw32/include\stdio.h **** #define __MINGW_SCANF_FORMAT  scanf
 226:C:/Program Files/mingw-w64/x86_64-8.1.0-win32-seh-rt_v6-rev0/mingw64/x86_64-w64-mingw32/include\stdio.h **** #elif defined(__USE_MINGW_ANSI_STDIO)
 227:C:/Program Files/mingw-w64/x86_64-8.1.0-win32-seh-rt_v6-rev0/mingw64/x86_64-w64-mingw32/include\stdio.h **** #define __MINGW_PRINTF_FORMAT gnu_printf
 228:C:/Program Files/mingw-w64/x86_64-8.1.0-win32-seh-rt_v6-rev0/mingw64/x86_64-w64-mingw32/include\stdio.h **** #define __MINGW_SCANF_FORMAT  gnu_scanf
 229:C:/Program Files/mingw-w64/x86_64-8.1.0-win32-seh-rt_v6-rev0/mingw64/x86_64-w64-mingw32/include\stdio.h **** #else
 230:C:/Program Files/mingw-w64/x86_64-8.1.0-win32-seh-rt_v6-rev0/mingw64/x86_64-w64-mingw32/include\stdio.h **** #define __MINGW_PRINTF_FORMAT ms_printf
 231:C:/Program Files/mingw-w64/x86_64-8.1.0-win32-seh-rt_v6-rev0/mingw64/x86_64-w64-mingw32/include\stdio.h **** #define __MINGW_SCANF_FORMAT  ms_scanf
 232:C:/Program Files/mingw-w64/x86_64-8.1.0-win32-seh-rt_v6-rev0/mingw64/x86_64-w64-mingw32/include\stdio.h **** #endif
 233:C:/Program Files/mingw-w64/x86_64-8.1.0-win32-seh-rt_v6-rev0/mingw64/x86_64-w64-mingw32/include\stdio.h **** 
 234:C:/Program Files/mingw-w64/x86_64-8.1.0-win32-seh-rt_v6-rev0/mingw64/x86_64-w64-mingw32/include\stdio.h **** #if __USE_MINGW_ANSI_STDIO
 235:C:/Program Files/mingw-w64/x86_64-8.1.0-win32-seh-rt_v6-rev0/mingw64/x86_64-w64-mingw32/include\stdio.h **** /*
 236:C:/Program Files/mingw-w64/x86_64-8.1.0-win32-seh-rt_v6-rev0/mingw64/x86_64-w64-mingw32/include\stdio.h ****  * User has expressed a preference for C99 conformance...
 237:C:/Program Files/mingw-w64/x86_64-8.1.0-win32-seh-rt_v6-rev0/mingw64/x86_64-w64-mingw32/include\stdio.h ****  */
 238:C:/Program Files/mingw-w64/x86_64-8.1.0-win32-seh-rt_v6-rev0/mingw64/x86_64-w64-mingw32/include\stdio.h **** 
 239:C:/Program Files/mingw-w64/x86_64-8.1.0-win32-seh-rt_v6-rev0/mingw64/x86_64-w64-mingw32/include\stdio.h **** #ifdef _GNU_SOURCE
 240:C:/Program Files/mingw-w64/x86_64-8.1.0-win32-seh-rt_v6-rev0/mingw64/x86_64-w64-mingw32/include\stdio.h **** __mingw_ovr
 241:C:/Program Files/mingw-w64/x86_64-8.1.0-win32-seh-rt_v6-rev0/mingw64/x86_64-w64-mingw32/include\stdio.h **** __attribute__ ((__format__ (gnu_printf, 2, 3))) __attribute__((nonnull (1,2)))
 242:C:/Program Files/mingw-w64/x86_64-8.1.0-win32-seh-rt_v6-rev0/mingw64/x86_64-w64-mingw32/include\stdio.h **** int asprintf(char **__ret, const char *__format, ...)
 243:C:/Program Files/mingw-w64/x86_64-8.1.0-win32-seh-rt_v6-rev0/mingw64/x86_64-w64-mingw32/include\stdio.h **** {
 244:C:/Program Files/mingw-w64/x86_64-8.1.0-win32-seh-rt_v6-rev0/mingw64/x86_64-w64-mingw32/include\stdio.h ****   int __retval;
 245:C:/Program Files/mingw-w64/x86_64-8.1.0-win32-seh-rt_v6-rev0/mingw64/x86_64-w64-mingw32/include\stdio.h ****   __builtin_va_list __local_argv; __builtin_va_start( __local_argv, __format );
 246:C:/Program Files/mingw-w64/x86_64-8.1.0-win32-seh-rt_v6-rev0/mingw64/x86_64-w64-mingw32/include\stdio.h ****   __retval = __mingw_vasprintf( __ret, __format, __local_argv );
 247:C:/Program Files/mingw-w64/x86_64-8.1.0-win32-seh-rt_v6-rev0/mingw64/x86_64-w64-mingw32/include\stdio.h ****   __builtin_va_end( __local_argv );
 248:C:/Program Files/mingw-w64/x86_64-8.1.0-win32-seh-rt_v6-rev0/mingw64/x86_64-w64-mingw32/include\stdio.h ****   return __retval;
 249:C:/Program Files/mingw-w64/x86_64-8.1.0-win32-seh-rt_v6-rev0/mingw64/x86_64-w64-mingw32/include\stdio.h **** }
 250:C:/Program Files/mingw-w64/x86_64-8.1.0-win32-seh-rt_v6-rev0/mingw64/x86_64-w64-mingw32/include\stdio.h **** 
 251:C:/Program Files/mingw-w64/x86_64-8.1.0-win32-seh-rt_v6-rev0/mingw64/x86_64-w64-mingw32/include\stdio.h **** __mingw_ovr
 252:C:/Program Files/mingw-w64/x86_64-8.1.0-win32-seh-rt_v6-rev0/mingw64/x86_64-w64-mingw32/include\stdio.h **** __attribute__ ((__format__ (gnu_printf, 2, 0))) __attribute__((nonnull (1,2)))
 253:C:/Program Files/mingw-w64/x86_64-8.1.0-win32-seh-rt_v6-rev0/mingw64/x86_64-w64-mingw32/include\stdio.h **** int vasprintf(char **__ret, const char *__format, __builtin_va_list __local_argv)
 254:C:/Program Files/mingw-w64/x86_64-8.1.0-win32-seh-rt_v6-rev0/mingw64/x86_64-w64-mingw32/include\stdio.h **** {
 255:C:/Program Files/mingw-w64/x86_64-8.1.0-win32-seh-rt_v6-rev0/mingw64/x86_64-w64-mingw32/include\stdio.h ****   return __mingw_vasprintf( __ret, __format, __local_argv );
 256:C:/Program Files/mingw-w64/x86_64-8.1.0-win32-seh-rt_v6-rev0/mingw64/x86_64-w64-mingw32/include\stdio.h **** }
 257:C:/Program Files/mingw-w64/x86_64-8.1.0-win32-seh-rt_v6-rev0/mingw64/x86_64-w64-mingw32/include\stdio.h **** #endif /* _GNU_SOURCE */
 258:C:/Program Files/mingw-w64/x86_64-8.1.0-win32-seh-rt_v6-rev0/mingw64/x86_64-w64-mingw32/include\stdio.h **** 
 259:C:/Program Files/mingw-w64/x86_64-8.1.0-win32-seh-rt_v6-rev0/mingw64/x86_64-w64-mingw32/include\stdio.h **** /* There seems to be a bug about builtins and static overrides of them
 260:C:/Program Files/mingw-w64/x86_64-8.1.0-win32-seh-rt_v6-rev0/mingw64/x86_64-w64-mingw32/include\stdio.h ****    in g++.  So we need to do here some trickery.  */
 261:C:/Program Files/mingw-w64/x86_64-8.1.0-win32-seh-rt_v6-rev0/mingw64/x86_64-w64-mingw32/include\stdio.h **** #ifdef __cplusplus
 262:C:/Program Files/mingw-w64/x86_64-8.1.0-win32-seh-rt_v6-rev0/mingw64/x86_64-w64-mingw32/include\stdio.h **** extern "C++" {
 263:C:/Program Files/mingw-w64/x86_64-8.1.0-win32-seh-rt_v6-rev0/mingw64/x86_64-w64-mingw32/include\stdio.h **** #endif
 264:C:/Program Files/mingw-w64/x86_64-8.1.0-win32-seh-rt_v6-rev0/mingw64/x86_64-w64-mingw32/include\stdio.h **** 
 265:C:/Program Files/mingw-w64/x86_64-8.1.0-win32-seh-rt_v6-rev0/mingw64/x86_64-w64-mingw32/include\stdio.h **** __mingw_ovr
 266:C:/Program Files/mingw-w64/x86_64-8.1.0-win32-seh-rt_v6-rev0/mingw64/x86_64-w64-mingw32/include\stdio.h **** __attribute__((__format__ (gnu_scanf, 2, 3))) __MINGW_ATTRIB_NONNULL(2)
 267:C:/Program Files/mingw-w64/x86_64-8.1.0-win32-seh-rt_v6-rev0/mingw64/x86_64-w64-mingw32/include\stdio.h **** int sscanf(const char *__source, const char *__format, ...)
 268:C:/Program Files/mingw-w64/x86_64-8.1.0-win32-seh-rt_v6-rev0/mingw64/x86_64-w64-mingw32/include\stdio.h **** {
 269:C:/Program Files/mingw-w64/x86_64-8.1.0-win32-seh-rt_v6-rev0/mingw64/x86_64-w64-mingw32/include\stdio.h ****   int __retval;
 270:C:/Program Files/mingw-w64/x86_64-8.1.0-win32-seh-rt_v6-rev0/mingw64/x86_64-w64-mingw32/include\stdio.h ****   __builtin_va_list __local_argv; __builtin_va_start( __local_argv, __format );
 271:C:/Program Files/mingw-w64/x86_64-8.1.0-win32-seh-rt_v6-rev0/mingw64/x86_64-w64-mingw32/include\stdio.h ****   __retval = __mingw_vsscanf( __source, __format, __local_argv );
 272:C:/Program Files/mingw-w64/x86_64-8.1.0-win32-seh-rt_v6-rev0/mingw64/x86_64-w64-mingw32/include\stdio.h ****   __builtin_va_end( __local_argv );
 273:C:/Program Files/mingw-w64/x86_64-8.1.0-win32-seh-rt_v6-rev0/mingw64/x86_64-w64-mingw32/include\stdio.h ****   return __retval;
 274:C:/Program Files/mingw-w64/x86_64-8.1.0-win32-seh-rt_v6-rev0/mingw64/x86_64-w64-mingw32/include\stdio.h **** }
 275:C:/Program Files/mingw-w64/x86_64-8.1.0-win32-seh-rt_v6-rev0/mingw64/x86_64-w64-mingw32/include\stdio.h **** 
 276:C:/Program Files/mingw-w64/x86_64-8.1.0-win32-seh-rt_v6-rev0/mingw64/x86_64-w64-mingw32/include\stdio.h **** __mingw_ovr
 277:C:/Program Files/mingw-w64/x86_64-8.1.0-win32-seh-rt_v6-rev0/mingw64/x86_64-w64-mingw32/include\stdio.h **** __attribute__((__format__ (gnu_scanf, 1, 2))) __MINGW_ATTRIB_NONNULL(1)
 278:C:/Program Files/mingw-w64/x86_64-8.1.0-win32-seh-rt_v6-rev0/mingw64/x86_64-w64-mingw32/include\stdio.h **** int scanf(const char *__format, ...)
 279:C:/Program Files/mingw-w64/x86_64-8.1.0-win32-seh-rt_v6-rev0/mingw64/x86_64-w64-mingw32/include\stdio.h **** {
  13              		.loc 1 279 1
  14              		.cfi_startproc
  15 0000 55       		pushq	%rbp
  16              		.seh_pushreg	%rbp
  17              		.cfi_def_cfa_offset 16
  18              		.cfi_offset 6, -16
  19 0001 53       		pushq	%rbx
  20              		.seh_pushreg	%rbx
  21              		.cfi_def_cfa_offset 24
  22              		.cfi_offset 3, -24
  23 0002 4883EC38 		subq	$56, %rsp
  24              		.seh_stackalloc	56
  25              		.cfi_def_cfa_offset 80
  26 0006 488DAC24 		leaq	128(%rsp), %rbp
  26      80000000 
  27              		.seh_setframe	%rbp, 128
  28              		.cfi_def_cfa 6, -48
  29              		.seh_endprologue
  30 000e 48894DD0 		movq	%rcx, -48(%rbp)
  31 0012 488955D8 		movq	%rdx, -40(%rbp)
  32 0016 4C8945E0 		movq	%r8, -32(%rbp)
  33 001a 4C894DE8 		movq	%r9, -24(%rbp)
 280:C:/Program Files/mingw-w64/x86_64-8.1.0-win32-seh-rt_v6-rev0/mingw64/x86_64-w64-mingw32/include\stdio.h ****   int __retval;
 281:C:/Program Files/mingw-w64/x86_64-8.1.0-win32-seh-rt_v6-rev0/mingw64/x86_64-w64-mingw32/include\stdio.h ****   __builtin_va_list __local_argv; __builtin_va_start( __local_argv, __format );
  34              		.loc 1 281 53
  35 001e 488D45D8 		leaq	-40(%rbp), %rax
  36 0022 488945A0 		movq	%rax, -96(%rbp)
 282:C:/Program Files/mingw-w64/x86_64-8.1.0-win32-seh-rt_v6-rev0/mingw64/x86_64-w64-mingw32/include\stdio.h ****   __retval = __mingw_vfscanf( stdin, __format, __local_argv );
  37              		.loc 1 282 29
  38 0026 488B5DA0 		movq	-96(%rbp), %rbx
  39 002a B9000000 		movl	$0, %ecx
  39      00
  40 002f 488B0500 		movq	__imp___acrt_iob_func(%rip), %rax
  40      000000
  41 0036 FFD0     		call	*%rax
  42              	.LVL0:
  43 0038 4989D8   		movq	%rbx, %r8
  44 003b 488B55D0 		movq	-48(%rbp), %rdx
  45 003f 4889C1   		movq	%rax, %rcx
  46 0042 E8000000 		call	__mingw_vfscanf
  46      00
  47 0047 8945AC   		movl	%eax, -84(%rbp)
 283:C:/Program Files/mingw-w64/x86_64-8.1.0-win32-seh-rt_v6-rev0/mingw64/x86_64-w64-mingw32/include\stdio.h ****   __builtin_va_end( __local_argv );
 284:C:/Program Files/mingw-w64/x86_64-8.1.0-win32-seh-rt_v6-rev0/mingw64/x86_64-w64-mingw32/include\stdio.h ****   return __retval;
  48              		.loc 1 284 10
  49 004a 8B45AC   		movl	-84(%rbp), %eax
 285:C:/Program Files/mingw-w64/x86_64-8.1.0-win32-seh-rt_v6-rev0/mingw64/x86_64-w64-mingw32/include\stdio.h **** }
  50              		.loc 1 285 1
  51 004d 4883C438 		addq	$56, %rsp
  52 0051 5B       		popq	%rbx
  53              		.cfi_restore 3
  54 0052 5D       		popq	%rbp
  55              		.cfi_restore 6
  56              		.cfi_def_cfa 7, -40
  57 0053 C3       		ret
  58              		.cfi_endproc
  59              	.LFE2:
  60              		.seh_endproc
  61 0054 90909090 		.section	.text$_Z6printfPKcz,"x"
  61      90909090 
  61      90909090 
  62              		.linkonce discard
  63              		.globl	_Z6printfPKcz
  65              		.seh_proc	_Z6printfPKcz
  66              	_Z6printfPKcz:
  67              	.LFB8:
 286:C:/Program Files/mingw-w64/x86_64-8.1.0-win32-seh-rt_v6-rev0/mingw64/x86_64-w64-mingw32/include\stdio.h **** 
 287:C:/Program Files/mingw-w64/x86_64-8.1.0-win32-seh-rt_v6-rev0/mingw64/x86_64-w64-mingw32/include\stdio.h **** __mingw_ovr
 288:C:/Program Files/mingw-w64/x86_64-8.1.0-win32-seh-rt_v6-rev0/mingw64/x86_64-w64-mingw32/include\stdio.h **** __attribute__((__format__ (gnu_scanf, 2, 3))) __MINGW_ATTRIB_NONNULL(2)
 289:C:/Program Files/mingw-w64/x86_64-8.1.0-win32-seh-rt_v6-rev0/mingw64/x86_64-w64-mingw32/include\stdio.h **** int fscanf(FILE *__stream, const char *__format, ...)
 290:C:/Program Files/mingw-w64/x86_64-8.1.0-win32-seh-rt_v6-rev0/mingw64/x86_64-w64-mingw32/include\stdio.h **** {
 291:C:/Program Files/mingw-w64/x86_64-8.1.0-win32-seh-rt_v6-rev0/mingw64/x86_64-w64-mingw32/include\stdio.h ****   int __retval;
 292:C:/Program Files/mingw-w64/x86_64-8.1.0-win32-seh-rt_v6-rev0/mingw64/x86_64-w64-mingw32/include\stdio.h ****   __builtin_va_list __local_argv; __builtin_va_start( __local_argv, __format );
 293:C:/Program Files/mingw-w64/x86_64-8.1.0-win32-seh-rt_v6-rev0/mingw64/x86_64-w64-mingw32/include\stdio.h ****   __retval = __mingw_vfscanf( __stream, __format, __local_argv );
 294:C:/Program Files/mingw-w64/x86_64-8.1.0-win32-seh-rt_v6-rev0/mingw64/x86_64-w64-mingw32/include\stdio.h ****   __builtin_va_end( __local_argv );
 295:C:/Program Files/mingw-w64/x86_64-8.1.0-win32-seh-rt_v6-rev0/mingw64/x86_64-w64-mingw32/include\stdio.h ****   return __retval;
 296:C:/Program Files/mingw-w64/x86_64-8.1.0-win32-seh-rt_v6-rev0/mingw64/x86_64-w64-mingw32/include\stdio.h **** }
 297:C:/Program Files/mingw-w64/x86_64-8.1.0-win32-seh-rt_v6-rev0/mingw64/x86_64-w64-mingw32/include\stdio.h **** 
 298:C:/Program Files/mingw-w64/x86_64-8.1.0-win32-seh-rt_v6-rev0/mingw64/x86_64-w64-mingw32/include\stdio.h **** #ifndef __NO_ISOCEXT  /* externs in libmingwex.a */
 299:C:/Program Files/mingw-w64/x86_64-8.1.0-win32-seh-rt_v6-rev0/mingw64/x86_64-w64-mingw32/include\stdio.h **** #ifdef __GNUC__
 300:C:/Program Files/mingw-w64/x86_64-8.1.0-win32-seh-rt_v6-rev0/mingw64/x86_64-w64-mingw32/include\stdio.h **** #pragma GCC diagnostic push
 301:C:/Program Files/mingw-w64/x86_64-8.1.0-win32-seh-rt_v6-rev0/mingw64/x86_64-w64-mingw32/include\stdio.h **** #pragma GCC diagnostic ignored "-Wshadow"
 302:C:/Program Files/mingw-w64/x86_64-8.1.0-win32-seh-rt_v6-rev0/mingw64/x86_64-w64-mingw32/include\stdio.h **** #endif
 303:C:/Program Files/mingw-w64/x86_64-8.1.0-win32-seh-rt_v6-rev0/mingw64/x86_64-w64-mingw32/include\stdio.h **** 
 304:C:/Program Files/mingw-w64/x86_64-8.1.0-win32-seh-rt_v6-rev0/mingw64/x86_64-w64-mingw32/include\stdio.h **** __mingw_ovr
 305:C:/Program Files/mingw-w64/x86_64-8.1.0-win32-seh-rt_v6-rev0/mingw64/x86_64-w64-mingw32/include\stdio.h **** __attribute__((__format__ (gnu_scanf, 2, 0))) __MINGW_ATTRIB_NONNULL(2)
 306:C:/Program Files/mingw-w64/x86_64-8.1.0-win32-seh-rt_v6-rev0/mingw64/x86_64-w64-mingw32/include\stdio.h **** int vsscanf (const char *__source, const char *__format, __builtin_va_list __local_argv)
 307:C:/Program Files/mingw-w64/x86_64-8.1.0-win32-seh-rt_v6-rev0/mingw64/x86_64-w64-mingw32/include\stdio.h **** {
 308:C:/Program Files/mingw-w64/x86_64-8.1.0-win32-seh-rt_v6-rev0/mingw64/x86_64-w64-mingw32/include\stdio.h ****   return __mingw_vsscanf( __source, __format, __local_argv );
 309:C:/Program Files/mingw-w64/x86_64-8.1.0-win32-seh-rt_v6-rev0/mingw64/x86_64-w64-mingw32/include\stdio.h **** }
 310:C:/Program Files/mingw-w64/x86_64-8.1.0-win32-seh-rt_v6-rev0/mingw64/x86_64-w64-mingw32/include\stdio.h **** 
 311:C:/Program Files/mingw-w64/x86_64-8.1.0-win32-seh-rt_v6-rev0/mingw64/x86_64-w64-mingw32/include\stdio.h **** __mingw_ovr
 312:C:/Program Files/mingw-w64/x86_64-8.1.0-win32-seh-rt_v6-rev0/mingw64/x86_64-w64-mingw32/include\stdio.h **** __attribute__((__format__ (gnu_scanf, 1, 0))) __MINGW_ATTRIB_NONNULL(1)
 313:C:/Program Files/mingw-w64/x86_64-8.1.0-win32-seh-rt_v6-rev0/mingw64/x86_64-w64-mingw32/include\stdio.h **** int vscanf(const char *__format,  __builtin_va_list __local_argv)
 314:C:/Program Files/mingw-w64/x86_64-8.1.0-win32-seh-rt_v6-rev0/mingw64/x86_64-w64-mingw32/include\stdio.h **** {
 315:C:/Program Files/mingw-w64/x86_64-8.1.0-win32-seh-rt_v6-rev0/mingw64/x86_64-w64-mingw32/include\stdio.h ****   return __mingw_vfscanf( stdin, __format, __local_argv );
 316:C:/Program Files/mingw-w64/x86_64-8.1.0-win32-seh-rt_v6-rev0/mingw64/x86_64-w64-mingw32/include\stdio.h **** }
 317:C:/Program Files/mingw-w64/x86_64-8.1.0-win32-seh-rt_v6-rev0/mingw64/x86_64-w64-mingw32/include\stdio.h **** 
 318:C:/Program Files/mingw-w64/x86_64-8.1.0-win32-seh-rt_v6-rev0/mingw64/x86_64-w64-mingw32/include\stdio.h **** __mingw_ovr
 319:C:/Program Files/mingw-w64/x86_64-8.1.0-win32-seh-rt_v6-rev0/mingw64/x86_64-w64-mingw32/include\stdio.h **** __attribute__((__format__ (gnu_scanf, 2, 0))) __MINGW_ATTRIB_NONNULL(2)
 320:C:/Program Files/mingw-w64/x86_64-8.1.0-win32-seh-rt_v6-rev0/mingw64/x86_64-w64-mingw32/include\stdio.h **** int vfscanf (FILE *__stream,  const char *__format, __builtin_va_list __local_argv)
 321:C:/Program Files/mingw-w64/x86_64-8.1.0-win32-seh-rt_v6-rev0/mingw64/x86_64-w64-mingw32/include\stdio.h **** {
 322:C:/Program Files/mingw-w64/x86_64-8.1.0-win32-seh-rt_v6-rev0/mingw64/x86_64-w64-mingw32/include\stdio.h ****   return __mingw_vfscanf( __stream, __format, __local_argv );
 323:C:/Program Files/mingw-w64/x86_64-8.1.0-win32-seh-rt_v6-rev0/mingw64/x86_64-w64-mingw32/include\stdio.h **** }
 324:C:/Program Files/mingw-w64/x86_64-8.1.0-win32-seh-rt_v6-rev0/mingw64/x86_64-w64-mingw32/include\stdio.h **** 
 325:C:/Program Files/mingw-w64/x86_64-8.1.0-win32-seh-rt_v6-rev0/mingw64/x86_64-w64-mingw32/include\stdio.h **** #ifdef __GNUC__
 326:C:/Program Files/mingw-w64/x86_64-8.1.0-win32-seh-rt_v6-rev0/mingw64/x86_64-w64-mingw32/include\stdio.h **** #pragma GCC diagnostic pop
 327:C:/Program Files/mingw-w64/x86_64-8.1.0-win32-seh-rt_v6-rev0/mingw64/x86_64-w64-mingw32/include\stdio.h **** #endif
 328:C:/Program Files/mingw-w64/x86_64-8.1.0-win32-seh-rt_v6-rev0/mingw64/x86_64-w64-mingw32/include\stdio.h **** #endif /* __NO_ISOCEXT */
 329:C:/Program Files/mingw-w64/x86_64-8.1.0-win32-seh-rt_v6-rev0/mingw64/x86_64-w64-mingw32/include\stdio.h **** 
 330:C:/Program Files/mingw-w64/x86_64-8.1.0-win32-seh-rt_v6-rev0/mingw64/x86_64-w64-mingw32/include\stdio.h **** 
 331:C:/Program Files/mingw-w64/x86_64-8.1.0-win32-seh-rt_v6-rev0/mingw64/x86_64-w64-mingw32/include\stdio.h **** 
 332:C:/Program Files/mingw-w64/x86_64-8.1.0-win32-seh-rt_v6-rev0/mingw64/x86_64-w64-mingw32/include\stdio.h **** __mingw_ovr
 333:C:/Program Files/mingw-w64/x86_64-8.1.0-win32-seh-rt_v6-rev0/mingw64/x86_64-w64-mingw32/include\stdio.h **** __attribute__((__format__ (gnu_printf, 2, 3))) __MINGW_ATTRIB_NONNULL(2)
 334:C:/Program Files/mingw-w64/x86_64-8.1.0-win32-seh-rt_v6-rev0/mingw64/x86_64-w64-mingw32/include\stdio.h **** int fprintf (FILE *__stream, const char *__format, ...)
 335:C:/Program Files/mingw-w64/x86_64-8.1.0-win32-seh-rt_v6-rev0/mingw64/x86_64-w64-mingw32/include\stdio.h **** {
 336:C:/Program Files/mingw-w64/x86_64-8.1.0-win32-seh-rt_v6-rev0/mingw64/x86_64-w64-mingw32/include\stdio.h ****   int __retval;
 337:C:/Program Files/mingw-w64/x86_64-8.1.0-win32-seh-rt_v6-rev0/mingw64/x86_64-w64-mingw32/include\stdio.h ****   __builtin_va_list __local_argv; __builtin_va_start( __local_argv, __format );
 338:C:/Program Files/mingw-w64/x86_64-8.1.0-win32-seh-rt_v6-rev0/mingw64/x86_64-w64-mingw32/include\stdio.h ****   __retval = __mingw_vfprintf( __stream, __format, __local_argv );
 339:C:/Program Files/mingw-w64/x86_64-8.1.0-win32-seh-rt_v6-rev0/mingw64/x86_64-w64-mingw32/include\stdio.h ****   __builtin_va_end( __local_argv );
 340:C:/Program Files/mingw-w64/x86_64-8.1.0-win32-seh-rt_v6-rev0/mingw64/x86_64-w64-mingw32/include\stdio.h ****   return __retval;
 341:C:/Program Files/mingw-w64/x86_64-8.1.0-win32-seh-rt_v6-rev0/mingw64/x86_64-w64-mingw32/include\stdio.h **** }
 342:C:/Program Files/mingw-w64/x86_64-8.1.0-win32-seh-rt_v6-rev0/mingw64/x86_64-w64-mingw32/include\stdio.h **** 
 343:C:/Program Files/mingw-w64/x86_64-8.1.0-win32-seh-rt_v6-rev0/mingw64/x86_64-w64-mingw32/include\stdio.h **** __mingw_ovr
 344:C:/Program Files/mingw-w64/x86_64-8.1.0-win32-seh-rt_v6-rev0/mingw64/x86_64-w64-mingw32/include\stdio.h **** __attribute__((__format__ (gnu_printf, 1, 2))) __MINGW_ATTRIB_NONNULL(1)
 345:C:/Program Files/mingw-w64/x86_64-8.1.0-win32-seh-rt_v6-rev0/mingw64/x86_64-w64-mingw32/include\stdio.h **** int printf (const char *__format, ...)
 346:C:/Program Files/mingw-w64/x86_64-8.1.0-win32-seh-rt_v6-rev0/mingw64/x86_64-w64-mingw32/include\stdio.h **** {
  68              		.loc 1 346 1
  69              		.cfi_startproc
  70 0000 55       		pushq	%rbp
  71              		.seh_pushreg	%rbp
  72              		.cfi_def_cfa_offset 16
  73              		.cfi_offset 6, -16
  74 0001 53       		pushq	%rbx
  75              		.seh_pushreg	%rbx
  76              		.cfi_def_cfa_offset 24
  77              		.cfi_offset 3, -24
  78 0002 4883EC38 		subq	$56, %rsp
  79              		.seh_stackalloc	56
  80              		.cfi_def_cfa_offset 80
  81 0006 488DAC24 		leaq	128(%rsp), %rbp
  81      80000000 
  82              		.seh_setframe	%rbp, 128
  83              		.cfi_def_cfa 6, -48
  84              		.seh_endprologue
  85 000e 48894DD0 		movq	%rcx, -48(%rbp)
  86 0012 488955D8 		movq	%rdx, -40(%rbp)
  87 0016 4C8945E0 		movq	%r8, -32(%rbp)
  88 001a 4C894DE8 		movq	%r9, -24(%rbp)
 347:C:/Program Files/mingw-w64/x86_64-8.1.0-win32-seh-rt_v6-rev0/mingw64/x86_64-w64-mingw32/include\stdio.h ****   int __retval;
 348:C:/Program Files/mingw-w64/x86_64-8.1.0-win32-seh-rt_v6-rev0/mingw64/x86_64-w64-mingw32/include\stdio.h ****   __builtin_va_list __local_argv; __builtin_va_start( __local_argv, __format );
  89              		.loc 1 348 53
  90 001e 488D45D8 		leaq	-40(%rbp), %rax
  91 0022 488945A0 		movq	%rax, -96(%rbp)
 349:C:/Program Files/mingw-w64/x86_64-8.1.0-win32-seh-rt_v6-rev0/mingw64/x86_64-w64-mingw32/include\stdio.h ****   __retval = __mingw_vfprintf( stdout, __format, __local_argv );
  92              		.loc 1 349 30
  93 0026 488B5DA0 		movq	-96(%rbp), %rbx
  94 002a B9010000 		movl	$1, %ecx
  94      00
  95 002f 488B0500 		movq	__imp___acrt_iob_func(%rip), %rax
  95      000000
  96 0036 FFD0     		call	*%rax
  97              	.LVL1:
  98 0038 4989D8   		movq	%rbx, %r8
  99 003b 488B55D0 		movq	-48(%rbp), %rdx
 100 003f 4889C1   		movq	%rax, %rcx
 101 0042 E8000000 		call	__mingw_vfprintf
 101      00
 102 0047 8945AC   		movl	%eax, -84(%rbp)
 350:C:/Program Files/mingw-w64/x86_64-8.1.0-win32-seh-rt_v6-rev0/mingw64/x86_64-w64-mingw32/include\stdio.h ****   __builtin_va_end( __local_argv );
 351:C:/Program Files/mingw-w64/x86_64-8.1.0-win32-seh-rt_v6-rev0/mingw64/x86_64-w64-mingw32/include\stdio.h ****   return __retval;
 103              		.loc 1 351 10
 104 004a 8B45AC   		movl	-84(%rbp), %eax
 352:C:/Program Files/mingw-w64/x86_64-8.1.0-win32-seh-rt_v6-rev0/mingw64/x86_64-w64-mingw32/include\stdio.h **** }
 105              		.loc 1 352 1
 106 004d 4883C438 		addq	$56, %rsp
 107 0051 5B       		popq	%rbx
 108              		.cfi_restore 3
 109 0052 5D       		popq	%rbp
 110              		.cfi_restore 6
 111              		.cfi_def_cfa 7, -40
 112 0053 C3       		ret
 113              		.cfi_endproc
 114              	.LFE8:
 115              		.seh_endproc
 116 0054 90909090 		.section .rdata,"dr"
 116      90909090 
 116      90909090 
 117              		.align 4
 118              	_ZL1N:
 119 0000 16000000 		.long	22
 120              		.globl	f
 121              		.bss
 122              		.align 32
 123              	f:
 124 0000 00000000 		.space 1936
 124      00000000 
 124      00000000 
 124      00000000 
 124      00000000 
 125              		.globl	s
 126 0790 00000000 		.align 32
 126      00000000 
 126      00000000 
 126      00000000 
 127              	s:
 128 07a0 00000000 		.space 92
 128      00000000 
 128      00000000 
 128      00000000 
 128      00000000 
 129              		.globl	n
 130              		.align 4
 131              	n:
 132 07fc 00000000 		.space 4
 133              		.globl	ans
 134              		.align 4
 135              	ans:
 136 0800 00000000 		.space 4
 137 0804 00000000 		.text
 137      00000000 
 137      00000000 
 137      00000000 
 137      00000000 
 138              		.globl	_Z3dfsi
 140              		.seh_proc	_Z3dfsi
 141              	_Z3dfsi:
 142              	.LFB44:
 143              		.file 2 "../code/C++/\310\375\275\307\320\316/tria.cpp"
   1:../code/C++//tria.cpp **** #include <cstdio>
   2:../code/C++//tria.cpp **** 
   3:../code/C++//tria.cpp **** const int N = 22;
   4:../code/C++//tria.cpp **** int f[N][N], s[N + 1], n, ans;
   5:../code/C++//tria.cpp **** 
   6:../code/C++//tria.cpp **** void dfs(int k)
   7:../code/C++//tria.cpp **** {
 144              		.loc 2 7 1
 145              		.cfi_startproc
 146 0000 55       		pushq	%rbp
 147              		.seh_pushreg	%rbp
 148              		.cfi_def_cfa_offset 16
 149              		.cfi_offset 6, -16
 150 0001 4889E5   		movq	%rsp, %rbp
 151              		.seh_setframe	%rbp, 0
 152              		.cfi_def_cfa_register 6
 153 0004 4883EC30 		subq	$48, %rsp
 154              		.seh_stackalloc	48
 155              		.seh_endprologue
 156 0008 894D10   		movl	%ecx, 16(%rbp)
 157              	.LBB2:
   8:../code/C++//tria.cpp **** 	if (k == n)
 158              		.loc 2 8 8
 159 000b 8B05FC07 		movl	n(%rip), %eax
 159      0000
 160              		.loc 2 8 2
 161 0011 394510   		cmpl	%eax, 16(%rbp)
 162 0014 0F85E701 		jne	.L6
 162      0000
 163              	.LBB3:
   9:../code/C++//tria.cpp **** 	{
  10:../code/C++//tria.cpp **** 		int tmp = 0;
 164              		.loc 2 10 7
 165 001a C745FC00 		movl	$0, -4(%rbp)
 165      000000
 166              	.LBB4:
  11:../code/C++//tria.cpp **** 		for (int j = 0; j < n; ++j) tmp += f[0][j] ? 1 : -1;
 167              		.loc 2 11 12
 168 0021 C745F800 		movl	$0, -8(%rbp)
 168      000000
 169              	.L10:
 170              		.loc 2 11 21 discriminator 7
 171 0028 8B05FC07 		movl	n(%rip), %eax
 171      0000
 172 002e 3945F8   		cmpl	%eax, -8(%rbp)
 173 0031 7D30     		jge	.L7
 174              		.loc 2 11 44 discriminator 2
 175 0033 8B45F8   		movl	-8(%rbp), %eax
 176 0036 4898     		cltq
 177 0038 488D1485 		leaq	0(,%rax,4), %rdx
 177      00000000 
 178 0040 488D0500 		leaq	f(%rip), %rax
 178      000000
 179 0047 8B0402   		movl	(%rdx,%rax), %eax
 180              		.loc 2 11 46 discriminator 2
 181 004a 85C0     		testl	%eax, %eax
 182 004c 7407     		je	.L8
 183              		.loc 2 11 46 is_stmt 0 discriminator 3
 184 004e B8010000 		movl	$1, %eax
 184      00
 185 0053 EB05     		jmp	.L9
 186              	.L8:
 187              		.loc 2 11 46 discriminator 4
 188 0055 B8FFFFFF 		movl	$-1, %eax
 188      FF
 189              	.L9:
 190              		.loc 2 11 35 is_stmt 1 discriminator 6
 191 005a 0145FC   		addl	%eax, -4(%rbp)
 192              		.loc 2 11 3 discriminator 6
 193 005d 8345F801 		addl	$1, -8(%rbp)
 194 0061 EBC5     		jmp	.L10
 195              	.L7:
 196              	.LBE4:
  12:../code/C++//tria.cpp **** 		if (tmp > s[n - 1] || tmp < -s[n - 1]) return;
 197              		.loc 2 12 17
 198 0063 8B05FC07 		movl	n(%rip), %eax
 198      0000
 199 0069 83E801   		subl	$1, %eax
 200              		.loc 2 12 20
 201 006c 4898     		cltq
 202 006e 488D1485 		leaq	0(,%rax,4), %rdx
 202      00000000 
 203 0076 488D05A0 		leaq	s(%rip), %rax
 203      070000
 204 007d 8B0402   		movl	(%rdx,%rax), %eax
 205              		.loc 2 12 3
 206 0080 3945FC   		cmpl	%eax, -4(%rbp)
 207 0083 0F8FCA01 		jg	.L22
 207      0000
 208              		.loc 2 12 36 discriminator 2
 209 0089 8B05FC07 		movl	n(%rip), %eax
 209      0000
 210 008f 83E801   		subl	$1, %eax
 211              		.loc 2 12 39 discriminator 2
 212 0092 4898     		cltq
 213 0094 488D1485 		leaq	0(,%rax,4), %rdx
 213      00000000 
 214 009c 488D05A0 		leaq	s(%rip), %rax
 214      070000
 215 00a3 8B0402   		movl	(%rdx,%rax), %eax
 216              		.loc 2 12 31 discriminator 2
 217 00a6 F7D8     		negl	%eax
 218              		.loc 2 12 22 discriminator 2
 219 00a8 3945FC   		cmpl	%eax, -4(%rbp)
 220 00ab 0F8CA201 		jl	.L22
 220      0000
 221              	.LBB5:
  13:../code/C++//tria.cpp **** 		for (int i = 1; i < n; ++i)
 222              		.loc 2 13 12
 223 00b1 C745F401 		movl	$1, -12(%rbp)
 223      000000
 224              	.L21:
 225              		.loc 2 13 21 discriminator 1
 226 00b8 8B05FC07 		movl	n(%rip), %eax
 226      0000
 227 00be 3945F4   		cmpl	%eax, -12(%rbp)
 228 00c1 0F8D2901 		jge	.L14
 228      0000
 229              	.LBB6:
 230              	.LBB7:
  14:../code/C++//tria.cpp **** 		{
  15:../code/C++//tria.cpp **** 			for (int j = 0; j < n - i; ++j)
 231              		.loc 2 15 13
 232 00c7 C745F000 		movl	$0, -16(%rbp)
 232      000000
 233              	.L18:
 234              		.loc 2 15 26 discriminator 2
 235 00ce 8B05FC07 		movl	n(%rip), %eax
 235      0000
 236 00d4 2B45F4   		subl	-12(%rbp), %eax
 237              		.loc 2 15 22 discriminator 2
 238 00d7 3945F0   		cmpl	%eax, -16(%rbp)
 239 00da 0F8DB700 		jge	.L15
 239      0000
  16:../code/C++//tria.cpp **** 			{
  17:../code/C++//tria.cpp **** 				f[i][j] = f[i - 1][j] ^ f[i - 1][j + 1];
 240              		.loc 2 17 19
 241 00e0 8B45F4   		movl	-12(%rbp), %eax
 242 00e3 8D50FF   		leal	-1(%rax), %edx
 243              		.loc 2 17 25
 244 00e6 8B45F0   		movl	-16(%rbp), %eax
 245 00e9 4898     		cltq
 246 00eb 4863D2   		movslq	%edx, %rdx
 247 00ee 486BD216 		imulq	$22, %rdx, %rdx
 248 00f2 4801D0   		addq	%rdx, %rax
 249 00f5 488D1485 		leaq	0(,%rax,4), %rdx
 249      00000000 
 250 00fd 488D0500 		leaq	f(%rip), %rax
 250      000000
 251 0104 8B0C02   		movl	(%rdx,%rax), %ecx
 252              		.loc 2 17 33
 253 0107 8B45F4   		movl	-12(%rbp), %eax
 254 010a 8D50FF   		leal	-1(%rax), %edx
 255              		.loc 2 17 40
 256 010d 8B45F0   		movl	-16(%rbp), %eax
 257 0110 83C001   		addl	$1, %eax
 258              		.loc 2 17 43
 259 0113 4898     		cltq
 260 0115 4863D2   		movslq	%edx, %rdx
 261 0118 486BD216 		imulq	$22, %rdx, %rdx
 262 011c 4801D0   		addq	%rdx, %rax
 263 011f 488D1485 		leaq	0(,%rax,4), %rdx
 263      00000000 
 264 0127 488D0500 		leaq	f(%rip), %rax
 264      000000
 265 012e 8B0402   		movl	(%rdx,%rax), %eax
 266              		.loc 2 17 27
 267 0131 31C1     		xorl	%eax, %ecx
 268              		.loc 2 17 13
 269 0133 8B45F0   		movl	-16(%rbp), %eax
 270 0136 4898     		cltq
 271 0138 8B55F4   		movl	-12(%rbp), %edx
 272 013b 4863D2   		movslq	%edx, %rdx
 273 013e 486BD216 		imulq	$22, %rdx, %rdx
 274 0142 4801D0   		addq	%rdx, %rax
 275 0145 488D1485 		leaq	0(,%rax,4), %rdx
 275      00000000 
 276 014d 488D0500 		leaq	f(%rip), %rax
 276      000000
 277 0154 890C02   		movl	%ecx, (%rdx,%rax)
  18:../code/C++//tria.cpp **** 				tmp += f[i][j] ? 1 : -1;
 278              		.loc 2 18 18
 279 0157 8B45F0   		movl	-16(%rbp), %eax
 280 015a 4898     		cltq
 281 015c 8B55F4   		movl	-12(%rbp), %edx
 282 015f 4863D2   		movslq	%edx, %rdx
 283 0162 486BD216 		imulq	$22, %rdx, %rdx
 284 0166 4801D0   		addq	%rdx, %rax
 285 0169 488D1485 		leaq	0(,%rax,4), %rdx
 285      00000000 
 286 0171 488D0500 		leaq	f(%rip), %rax
 286      000000
 287 0178 8B0402   		movl	(%rdx,%rax), %eax
 288              		.loc 2 18 20
 289 017b 85C0     		testl	%eax, %eax
 290 017d 7407     		je	.L16
 291              		.loc 2 18 20 is_stmt 0 discriminator 1
 292 017f B8010000 		movl	$1, %eax
 292      00
 293 0184 EB05     		jmp	.L17
 294              	.L16:
 295              		.loc 2 18 20 discriminator 2
 296 0186 B8FFFFFF 		movl	$-1, %eax
 296      FF
 297              	.L17:
 298              		.loc 2 18 9 is_stmt 1 discriminator 4
 299 018b 0145FC   		addl	%eax, -4(%rbp)
  15:../code/C++//tria.cpp **** 			{
 300              		.loc 2 15 4 discriminator 4
 301 018e 8345F001 		addl	$1, -16(%rbp)
 302 0192 E937FFFF 		jmp	.L18
 302      FF
 303              	.L15:
 304              	.LBE7:
  19:../code/C++//tria.cpp **** 			}
  20:../code/C++//tria.cpp **** 			if (tmp > s[n - 1 - i] || tmp < -s[n - 1 - i]) return;
 305              		.loc 2 20 18
 306 0197 8B05FC07 		movl	n(%rip), %eax
 306      0000
 307 019d 83E801   		subl	$1, %eax
 308              		.loc 2 20 22
 309 01a0 2B45F4   		subl	-12(%rbp), %eax
 310              		.loc 2 20 25
 311 01a3 4898     		cltq
 312 01a5 488D1485 		leaq	0(,%rax,4), %rdx
 312      00000000 
 313 01ad 488D05A0 		leaq	s(%rip), %rax
 313      070000
 314 01b4 8B0402   		movl	(%rdx,%rax), %eax
 315              		.loc 2 20 4
 316 01b7 3945FC   		cmpl	%eax, -4(%rbp)
 317 01ba 0F8F9600 		jg	.L23
 317      0000
 318              		.loc 2 20 41 discriminator 2
 319 01c0 8B05FC07 		movl	n(%rip), %eax
 319      0000
 320 01c6 83E801   		subl	$1, %eax
 321              		.loc 2 20 45 discriminator 2
 322 01c9 2B45F4   		subl	-12(%rbp), %eax
 323              		.loc 2 20 48 discriminator 2
 324 01cc 4898     		cltq
 325 01ce 488D1485 		leaq	0(,%rax,4), %rdx
 325      00000000 
 326 01d6 488D05A0 		leaq	s(%rip), %rax
 326      070000
 327 01dd 8B0402   		movl	(%rdx,%rax), %eax
 328              		.loc 2 20 36 discriminator 2
 329 01e0 F7D8     		negl	%eax
 330              		.loc 2 20 27 discriminator 2
 331 01e2 3945FC   		cmpl	%eax, -4(%rbp)
 332 01e5 7C6F     		jl	.L23
 333              	.LBE6:
  13:../code/C++//tria.cpp **** 		{
 334              		.loc 2 13 3 discriminator 2
 335 01e7 8345F401 		addl	$1, -12(%rbp)
 336 01eb E9C8FEFF 		jmp	.L21
 336      FF
 337              	.L14:
 338              	.LBE5:
  21:../code/C++//tria.cpp **** 		}
  22:../code/C++//tria.cpp **** 		++ans;
 339              		.loc 2 22 3
 340 01f0 8B050008 		movl	ans(%rip), %eax
 340      0000
 341 01f6 83C001   		addl	$1, %eax
 342 01f9 89050008 		movl	%eax, ans(%rip)
 342      0000
  23:../code/C++//tria.cpp **** 		return;
 343              		.loc 2 23 3
 344 01ff EB56     		jmp	.L5
 345              	.L6:
 346              	.LBE3:
 347              	.LBE2:
  24:../code/C++//tria.cpp **** 	}
  25:../code/C++//tria.cpp **** 	f[0][k] = 0;
 348              		.loc 2 25 10
 349 0201 8B4510   		movl	16(%rbp), %eax
 350 0204 4898     		cltq
 351 0206 488D1485 		leaq	0(,%rax,4), %rdx
 351      00000000 
 352 020e 488D0500 		leaq	f(%rip), %rax
 352      000000
 353 0215 C7040200 		movl	$0, (%rdx,%rax)
 353      000000
  26:../code/C++//tria.cpp **** 	dfs(k + 1);
 354              		.loc 2 26 5
 355 021c 8B4510   		movl	16(%rbp), %eax
 356 021f 83C001   		addl	$1, %eax
 357 0222 89C1     		movl	%eax, %ecx
 358 0224 E8D7FDFF 		call	_Z3dfsi
 358      FF
  27:../code/C++//tria.cpp **** 	f[0][k] = 1;
 359              		.loc 2 27 10
 360 0229 8B4510   		movl	16(%rbp), %eax
 361 022c 4898     		cltq
 362 022e 488D1485 		leaq	0(,%rax,4), %rdx
 362      00000000 
 363 0236 488D0500 		leaq	f(%rip), %rax
 363      000000
 364 023d C7040201 		movl	$1, (%rdx,%rax)
 364      000000
  28:../code/C++//tria.cpp **** 	dfs(k + 1);
 365              		.loc 2 28 5
 366 0244 8B4510   		movl	16(%rbp), %eax
 367 0247 83C001   		addl	$1, %eax
 368 024a 89C1     		movl	%eax, %ecx
 369 024c E8AFFDFF 		call	_Z3dfsi
 369      FF
 370 0251 EB04     		jmp	.L5
 371              	.L22:
 372              	.LBB11:
 373              	.LBB10:
  12:../code/C++//tria.cpp **** 		for (int i = 1; i < n; ++i)
 374              		.loc 2 12 42
 375 0253 90       		nop
 376 0254 EB01     		jmp	.L5
 377              	.L23:
 378              	.LBB9:
 379              	.LBB8:
  20:../code/C++//tria.cpp **** 		}
 380              		.loc 2 20 51
 381 0256 90       		nop
 382              	.L5:
 383              	.LBE8:
 384              	.LBE9:
 385              	.LBE10:
 386              	.LBE11:
  29:../code/C++//tria.cpp **** }
 387              		.loc 2 29 1
 388 0257 4883C430 		addq	$48, %rsp
 389 025b 5D       		popq	%rbp
 390              		.cfi_restore 6
 391              		.cfi_def_cfa 7, 8
 392 025c C3       		ret
 393              		.cfi_endproc
 394              	.LFE44:
 395              		.seh_endproc
 397              		.section .rdata,"dr"
 398              	.LC0:
 399 0004 7200     		.ascii "r\0"
 400              	.LC1:
 401 0006 74726961 		.ascii "tria.in\0"
 401      2E696E00 
 402              	.LC2:
 403 000e 7700     		.ascii "w\0"
 404              	.LC3:
 405 0010 74726961 		.ascii "tria.out\0"
 405      2E6F7574 
 405      00
 406              	.LC4:
 407 0019 256400   		.ascii "%d\0"
 408              	.LC5:
 409 001c 3000     		.ascii "0\0"
 410 001e 0000     		.text
 411              		.globl	main
 413              		.seh_proc	main
 414              	main:
 415              	.LFB45:
  30:../code/C++//tria.cpp **** 
  31:../code/C++//tria.cpp **** int main()
  32:../code/C++//tria.cpp **** {
 416              		.loc 2 32 1
 417              		.cfi_startproc
 418 025d 55       		pushq	%rbp
 419              		.seh_pushreg	%rbp
 420              		.cfi_def_cfa_offset 16
 421              		.cfi_offset 6, -16
 422 025e 4889E5   		movq	%rsp, %rbp
 423              		.seh_setframe	%rbp, 0
 424              		.cfi_def_cfa_register 6
 425 0261 4883EC30 		subq	$48, %rsp
 426              		.seh_stackalloc	48
 427              		.seh_endprologue
 428              		.loc 2 32 1
 429 0265 E8000000 		call	__main
 429      00
 430              	.LVL2:
  33:../code/C++//tria.cpp **** 	freopen("tria.in", "r", stdin);
 431              		.loc 2 33 9
 432 026a B9000000 		movl	$0, %ecx
 432      00
 433 026f 488B0500 		movq	__imp___acrt_iob_func(%rip), %rax
 433      000000
 434 0276 FFD0     		call	*%rax
 435              	.LVL3:
 436 0278 4989C0   		movq	%rax, %r8
 437 027b 488D1504 		leaq	.LC0(%rip), %rdx
 437      000000
 438 0282 488D0D06 		leaq	.LC1(%rip), %rcx
 438      000000
 439 0289 E8000000 		call	freopen
 439      00
  34:../code/C++//tria.cpp **** 	freopen("tria.out", "w", stdout);
 440              		.loc 2 34 9
 441 028e B9010000 		movl	$1, %ecx
 441      00
 442 0293 488B0500 		movq	__imp___acrt_iob_func(%rip), %rax
 442      000000
 443 029a FFD0     		call	*%rax
 444              	.LVL4:
 445 029c 4989C0   		movq	%rax, %r8
 446 029f 488D150E 		leaq	.LC2(%rip), %rdx
 446      000000
 447 02a6 488D0D10 		leaq	.LC3(%rip), %rcx
 447      000000
 448 02ad E8000000 		call	freopen
 448      00
  35:../code/C++//tria.cpp **** 	scanf("%d", &n);
 449              		.loc 2 35 7
 450 02b2 488D15FC 		leaq	n(%rip), %rdx
 450      070000
 451 02b9 488D0D19 		leaq	.LC4(%rip), %rcx
 451      000000
 452 02c0 E8000000 		call	_Z5scanfPKcz
 452      00
  36:../code/C++//tria.cpp **** 	if (((n + 1) * n >> 1) & 1)
 453              		.loc 2 36 10
 454 02c5 8B05FC07 		movl	n(%rip), %eax
 454      0000
 455 02cb 8D5001   		leal	1(%rax), %edx
 456              		.loc 2 36 15
 457 02ce 8B05FC07 		movl	n(%rip), %eax
 457      0000
 458 02d4 0FAFC2   		imull	%edx, %eax
 459              		.loc 2 36 28
 460 02d7 83E002   		andl	$2, %eax
 461              		.loc 2 36 2
 462 02da 85C0     		testl	%eax, %eax
 463 02dc 7413     		je	.L25
  37:../code/C++//tria.cpp **** 	{
  38:../code/C++//tria.cpp **** 		puts("0");
 464              		.loc 2 38 7
 465 02de 488D0D1C 		leaq	.LC5(%rip), %rcx
 465      000000
 466 02e5 E8000000 		call	puts
 466      00
  39:../code/C++//tria.cpp **** 		return 0;
 467              		.loc 2 39 10
 468 02ea B8000000 		movl	$0, %eax
 468      00
 469 02ef EB60     		jmp	.L26
 470              	.L25:
 471              	.LBB12:
  40:../code/C++//tria.cpp **** 	}
  41:../code/C++//tria.cpp **** 	for (int i = 0; i < n; ++i) s[i] = (i * (i + 1)) >> 1;
 472              		.loc 2 41 11
 473 02f1 C745FC00 		movl	$0, -4(%rbp)
 473      000000
 474              	.L28:
 475              		.loc 2 41 20 discriminator 3
 476 02f8 8B05FC07 		movl	n(%rip), %eax
 476      0000
 477 02fe 3945FC   		cmpl	%eax, -4(%rbp)
 478 0301 7D2B     		jge	.L27
 479              		.loc 2 41 45 discriminator 2
 480 0303 8B45FC   		movl	-4(%rbp), %eax
 481 0306 83C001   		addl	$1, %eax
 482              		.loc 2 41 40 discriminator 2
 483 0309 0FAF45FC 		imull	-4(%rbp), %eax
 484              		.loc 2 41 51 discriminator 2
 485 030d D1F8     		sarl	%eax
 486 030f 89C1     		movl	%eax, %ecx
 487              		.loc 2 41 35 discriminator 2
 488 0311 8B45FC   		movl	-4(%rbp), %eax
 489 0314 4898     		cltq
 490 0316 488D1485 		leaq	0(,%rax,4), %rdx
 490      00000000 
 491 031e 488D05A0 		leaq	s(%rip), %rax
 491      070000
 492 0325 890C02   		movl	%ecx, (%rdx,%rax)
 493              		.loc 2 41 2 discriminator 2
 494 0328 8345FC01 		addl	$1, -4(%rbp)
 495 032c EBCA     		jmp	.L28
 496              	.L27:
 497              	.LBE12:
  42:../code/C++//tria.cpp **** 	dfs(0);
 498              		.loc 2 42 5
 499 032e B9000000 		movl	$0, %ecx
 499      00
 500 0333 E8C8FCFF 		call	_Z3dfsi
 500      FF
  43:../code/C++//tria.cpp **** 	printf("%d", ans);
 501              		.loc 2 43 8
 502 0338 8B050008 		movl	ans(%rip), %eax
 502      0000
 503 033e 89C2     		movl	%eax, %edx
 504 0340 488D0D19 		leaq	.LC4(%rip), %rcx
 504      000000
 505 0347 E8000000 		call	_Z6printfPKcz
 505      00
  44:../code/C++//tria.cpp **** 	return 0;
 506              		.loc 2 44 9
 507 034c B8000000 		movl	$0, %eax
 507      00
 508              	.L26:
  45:../code/C++//tria.cpp **** }...
 509              		.loc 2 45 1
 510 0351 4883C430 		addq	$48, %rsp
 511 0355 5D       		popq	%rbp
 512              		.cfi_restore 6
 513              		.cfi_def_cfa 7, 8
 514 0356 C3       		ret
 515              		.cfi_endproc
 516              	.LFE45:
 517              		.seh_endproc
 518              	.Letext0:
 519              		.file 3 "C:/Program Files/mingw-w64/x86_64-8.1.0-win32-seh-rt_v6-rev0/mingw64/lib/gcc/x86_64-w64-m
 520              		.file 4 "C:/Program Files/mingw-w64/x86_64-8.1.0-win32-seh-rt_v6-rev0/mingw64/lib/gcc/x86_64-w64-m
 521              		.file 5 "C:/Program Files/mingw-w64/x86_64-8.1.0-win32-seh-rt_v6-rev0/mingw64/x86_64-w64-mingw32/i
 522              		.file 6 "<built-in>"