   1              		.file	"asm_test.cpp"
   2              		.text
   3              	.Ltext0:
   4              		.cfi_sections	.debug_frame
   5              		.section	.text$_Z5scanfPKcz,"x"
   6              		.linkonce discard
   7              		.globl	_Z5scanfPKcz
   9              		.seh_proc	_Z5scanfPKcz
  10              	_Z5scanfPKcz:
  11              	.LFB2:
  12              		.file 1 "C:/Compiler/MinGW64/x86_64-w64-mingw32/include/stdio.h"
   1:C:/Compiler/MinGW64/x86_64-w64-mingw32/include\stdio.h **** /**
   2:C:/Compiler/MinGW64/x86_64-w64-mingw32/include\stdio.h ****  * This file has no copyright assigned and is placed in the Public Domain.
   3:C:/Compiler/MinGW64/x86_64-w64-mingw32/include\stdio.h ****  * This file is part of the mingw-w64 runtime package.
   4:C:/Compiler/MinGW64/x86_64-w64-mingw32/include\stdio.h ****  * No warranty is given; refer to the file DISCLAIMER.PD within this package.
   5:C:/Compiler/MinGW64/x86_64-w64-mingw32/include\stdio.h ****  */
   6:C:/Compiler/MinGW64/x86_64-w64-mingw32/include\stdio.h **** #ifndef _INC_STDIO
   7:C:/Compiler/MinGW64/x86_64-w64-mingw32/include\stdio.h **** #define _INC_STDIO
   8:C:/Compiler/MinGW64/x86_64-w64-mingw32/include\stdio.h **** 
   9:C:/Compiler/MinGW64/x86_64-w64-mingw32/include\stdio.h **** #include <crtdefs.h>
  10:C:/Compiler/MinGW64/x86_64-w64-mingw32/include\stdio.h **** 
  11:C:/Compiler/MinGW64/x86_64-w64-mingw32/include\stdio.h **** #include <_mingw_print_push.h>
  12:C:/Compiler/MinGW64/x86_64-w64-mingw32/include\stdio.h **** 
  13:C:/Compiler/MinGW64/x86_64-w64-mingw32/include\stdio.h **** #pragma pack(push,_CRT_PACKING)
  14:C:/Compiler/MinGW64/x86_64-w64-mingw32/include\stdio.h **** 
  15:C:/Compiler/MinGW64/x86_64-w64-mingw32/include\stdio.h **** #ifdef __cplusplus
  16:C:/Compiler/MinGW64/x86_64-w64-mingw32/include\stdio.h **** extern "C" {
  17:C:/Compiler/MinGW64/x86_64-w64-mingw32/include\stdio.h **** #endif
  18:C:/Compiler/MinGW64/x86_64-w64-mingw32/include\stdio.h **** 
  19:C:/Compiler/MinGW64/x86_64-w64-mingw32/include\stdio.h **** #define BUFSIZ 512
  20:C:/Compiler/MinGW64/x86_64-w64-mingw32/include\stdio.h **** #define _NFILE _NSTREAM_
  21:C:/Compiler/MinGW64/x86_64-w64-mingw32/include\stdio.h **** #define _NSTREAM_ 512
  22:C:/Compiler/MinGW64/x86_64-w64-mingw32/include\stdio.h **** #define _IOB_ENTRIES 20
  23:C:/Compiler/MinGW64/x86_64-w64-mingw32/include\stdio.h **** #define EOF (-1)
  24:C:/Compiler/MinGW64/x86_64-w64-mingw32/include\stdio.h **** 
  25:C:/Compiler/MinGW64/x86_64-w64-mingw32/include\stdio.h **** #ifndef _FILE_DEFINED
  26:C:/Compiler/MinGW64/x86_64-w64-mingw32/include\stdio.h ****   struct _iobuf {
  27:C:/Compiler/MinGW64/x86_64-w64-mingw32/include\stdio.h ****     char *_ptr;
  28:C:/Compiler/MinGW64/x86_64-w64-mingw32/include\stdio.h ****     int _cnt;
  29:C:/Compiler/MinGW64/x86_64-w64-mingw32/include\stdio.h ****     char *_base;
  30:C:/Compiler/MinGW64/x86_64-w64-mingw32/include\stdio.h ****     int _flag;
  31:C:/Compiler/MinGW64/x86_64-w64-mingw32/include\stdio.h ****     int _file;
  32:C:/Compiler/MinGW64/x86_64-w64-mingw32/include\stdio.h ****     int _charbuf;
  33:C:/Compiler/MinGW64/x86_64-w64-mingw32/include\stdio.h ****     int _bufsiz;
  34:C:/Compiler/MinGW64/x86_64-w64-mingw32/include\stdio.h ****     char *_tmpfname;
  35:C:/Compiler/MinGW64/x86_64-w64-mingw32/include\stdio.h ****   };
  36:C:/Compiler/MinGW64/x86_64-w64-mingw32/include\stdio.h ****   typedef struct _iobuf FILE;
  37:C:/Compiler/MinGW64/x86_64-w64-mingw32/include\stdio.h **** #define _FILE_DEFINED
  38:C:/Compiler/MinGW64/x86_64-w64-mingw32/include\stdio.h **** #endif
  39:C:/Compiler/MinGW64/x86_64-w64-mingw32/include\stdio.h **** 
  40:C:/Compiler/MinGW64/x86_64-w64-mingw32/include\stdio.h **** #ifdef _POSIX_
  41:C:/Compiler/MinGW64/x86_64-w64-mingw32/include\stdio.h **** #define _P_tmpdir "/"
  42:C:/Compiler/MinGW64/x86_64-w64-mingw32/include\stdio.h **** #define _wP_tmpdir L"/"
  43:C:/Compiler/MinGW64/x86_64-w64-mingw32/include\stdio.h **** #else
  44:C:/Compiler/MinGW64/x86_64-w64-mingw32/include\stdio.h **** #define _P_tmpdir "\\"
  45:C:/Compiler/MinGW64/x86_64-w64-mingw32/include\stdio.h **** #define _wP_tmpdir L"\\"
  46:C:/Compiler/MinGW64/x86_64-w64-mingw32/include\stdio.h **** #endif
  47:C:/Compiler/MinGW64/x86_64-w64-mingw32/include\stdio.h **** 
  48:C:/Compiler/MinGW64/x86_64-w64-mingw32/include\stdio.h **** #define L_tmpnam (sizeof(_P_tmpdir) + 12)
  49:C:/Compiler/MinGW64/x86_64-w64-mingw32/include\stdio.h **** 
  50:C:/Compiler/MinGW64/x86_64-w64-mingw32/include\stdio.h **** #ifdef _POSIX_
  51:C:/Compiler/MinGW64/x86_64-w64-mingw32/include\stdio.h **** #define L_ctermid 9
  52:C:/Compiler/MinGW64/x86_64-w64-mingw32/include\stdio.h **** #define L_cuserid 32
  53:C:/Compiler/MinGW64/x86_64-w64-mingw32/include\stdio.h **** #endif
  54:C:/Compiler/MinGW64/x86_64-w64-mingw32/include\stdio.h **** 
  55:C:/Compiler/MinGW64/x86_64-w64-mingw32/include\stdio.h **** #define SEEK_CUR 1
  56:C:/Compiler/MinGW64/x86_64-w64-mingw32/include\stdio.h **** #define SEEK_END 2
  57:C:/Compiler/MinGW64/x86_64-w64-mingw32/include\stdio.h **** #define SEEK_SET 0
  58:C:/Compiler/MinGW64/x86_64-w64-mingw32/include\stdio.h **** 
  59:C:/Compiler/MinGW64/x86_64-w64-mingw32/include\stdio.h **** #define	STDIN_FILENO	0
  60:C:/Compiler/MinGW64/x86_64-w64-mingw32/include\stdio.h **** #define	STDOUT_FILENO	1
  61:C:/Compiler/MinGW64/x86_64-w64-mingw32/include\stdio.h **** #define	STDERR_FILENO	2
  62:C:/Compiler/MinGW64/x86_64-w64-mingw32/include\stdio.h **** 
  63:C:/Compiler/MinGW64/x86_64-w64-mingw32/include\stdio.h **** #define FILENAME_MAX 260
  64:C:/Compiler/MinGW64/x86_64-w64-mingw32/include\stdio.h **** #define FOPEN_MAX 20
  65:C:/Compiler/MinGW64/x86_64-w64-mingw32/include\stdio.h **** #define _SYS_OPEN 20
  66:C:/Compiler/MinGW64/x86_64-w64-mingw32/include\stdio.h **** #define TMP_MAX 32767
  67:C:/Compiler/MinGW64/x86_64-w64-mingw32/include\stdio.h **** 
  68:C:/Compiler/MinGW64/x86_64-w64-mingw32/include\stdio.h **** #ifndef NULL
  69:C:/Compiler/MinGW64/x86_64-w64-mingw32/include\stdio.h **** #ifdef __cplusplus
  70:C:/Compiler/MinGW64/x86_64-w64-mingw32/include\stdio.h **** #ifndef _WIN64
  71:C:/Compiler/MinGW64/x86_64-w64-mingw32/include\stdio.h **** #define NULL 0
  72:C:/Compiler/MinGW64/x86_64-w64-mingw32/include\stdio.h **** #else
  73:C:/Compiler/MinGW64/x86_64-w64-mingw32/include\stdio.h **** #define NULL 0LL
  74:C:/Compiler/MinGW64/x86_64-w64-mingw32/include\stdio.h **** #endif  /* W64 */
  75:C:/Compiler/MinGW64/x86_64-w64-mingw32/include\stdio.h **** #else
  76:C:/Compiler/MinGW64/x86_64-w64-mingw32/include\stdio.h **** #define NULL ((void *)0)
  77:C:/Compiler/MinGW64/x86_64-w64-mingw32/include\stdio.h **** #endif
  78:C:/Compiler/MinGW64/x86_64-w64-mingw32/include\stdio.h **** #endif
  79:C:/Compiler/MinGW64/x86_64-w64-mingw32/include\stdio.h **** 
  80:C:/Compiler/MinGW64/x86_64-w64-mingw32/include\stdio.h **** #include <_mingw_off_t.h>
  81:C:/Compiler/MinGW64/x86_64-w64-mingw32/include\stdio.h **** 
  82:C:/Compiler/MinGW64/x86_64-w64-mingw32/include\stdio.h **** _CRTIMP FILE *__cdecl __acrt_iob_func(unsigned index);
  83:C:/Compiler/MinGW64/x86_64-w64-mingw32/include\stdio.h **** #ifndef _STDIO_DEFINED
  84:C:/Compiler/MinGW64/x86_64-w64-mingw32/include\stdio.h **** #ifdef _WIN64
  85:C:/Compiler/MinGW64/x86_64-w64-mingw32/include\stdio.h ****   _CRTIMP FILE *__cdecl __iob_func(void);
  86:C:/Compiler/MinGW64/x86_64-w64-mingw32/include\stdio.h **** #define _iob  __iob_func()
  87:C:/Compiler/MinGW64/x86_64-w64-mingw32/include\stdio.h **** #else
  88:C:/Compiler/MinGW64/x86_64-w64-mingw32/include\stdio.h **** #ifdef _MSVCRT_
  89:C:/Compiler/MinGW64/x86_64-w64-mingw32/include\stdio.h **** extern FILE _iob[];	/* A pointer to an array of FILE */
  90:C:/Compiler/MinGW64/x86_64-w64-mingw32/include\stdio.h **** #define __iob_func()	(_iob)
  91:C:/Compiler/MinGW64/x86_64-w64-mingw32/include\stdio.h **** #else
  92:C:/Compiler/MinGW64/x86_64-w64-mingw32/include\stdio.h **** extern FILE (* __MINGW_IMP_SYMBOL(_iob))[];	/* A pointer to an array of FILE */
  93:C:/Compiler/MinGW64/x86_64-w64-mingw32/include\stdio.h **** #define __iob_func()	(* __MINGW_IMP_SYMBOL(_iob))
  94:C:/Compiler/MinGW64/x86_64-w64-mingw32/include\stdio.h **** #define _iob __iob_func()
  95:C:/Compiler/MinGW64/x86_64-w64-mingw32/include\stdio.h **** #endif
  96:C:/Compiler/MinGW64/x86_64-w64-mingw32/include\stdio.h **** #endif
  97:C:/Compiler/MinGW64/x86_64-w64-mingw32/include\stdio.h **** #endif
  98:C:/Compiler/MinGW64/x86_64-w64-mingw32/include\stdio.h **** 
  99:C:/Compiler/MinGW64/x86_64-w64-mingw32/include\stdio.h **** #ifndef _FPOS_T_DEFINED
 100:C:/Compiler/MinGW64/x86_64-w64-mingw32/include\stdio.h **** #define _FPOS_T_DEFINED
 101:C:/Compiler/MinGW64/x86_64-w64-mingw32/include\stdio.h **** #undef _FPOSOFF
 102:C:/Compiler/MinGW64/x86_64-w64-mingw32/include\stdio.h **** 
 103:C:/Compiler/MinGW64/x86_64-w64-mingw32/include\stdio.h **** #if (!defined(NO_OLDNAMES) || defined(__GNUC__))
 104:C:/Compiler/MinGW64/x86_64-w64-mingw32/include\stdio.h ****   __MINGW_EXTENSION typedef __int64 fpos_t;
 105:C:/Compiler/MinGW64/x86_64-w64-mingw32/include\stdio.h **** #define _FPOSOFF(fp) ((long)(fp))
 106:C:/Compiler/MinGW64/x86_64-w64-mingw32/include\stdio.h **** #else
 107:C:/Compiler/MinGW64/x86_64-w64-mingw32/include\stdio.h ****   __MINGW_EXTENSION typedef long long fpos_t;
 108:C:/Compiler/MinGW64/x86_64-w64-mingw32/include\stdio.h **** #define _FPOSOFF(fp) ((long)(fp))
 109:C:/Compiler/MinGW64/x86_64-w64-mingw32/include\stdio.h **** #endif
 110:C:/Compiler/MinGW64/x86_64-w64-mingw32/include\stdio.h **** 
 111:C:/Compiler/MinGW64/x86_64-w64-mingw32/include\stdio.h **** #endif
 112:C:/Compiler/MinGW64/x86_64-w64-mingw32/include\stdio.h **** 
 113:C:/Compiler/MinGW64/x86_64-w64-mingw32/include\stdio.h **** #ifndef _STDSTREAM_DEFINED
 114:C:/Compiler/MinGW64/x86_64-w64-mingw32/include\stdio.h **** #define _STDSTREAM_DEFINED
 115:C:/Compiler/MinGW64/x86_64-w64-mingw32/include\stdio.h **** 
 116:C:/Compiler/MinGW64/x86_64-w64-mingw32/include\stdio.h **** #define stdin (__acrt_iob_func(0))
 117:C:/Compiler/MinGW64/x86_64-w64-mingw32/include\stdio.h **** #define stdout (__acrt_iob_func(1))
 118:C:/Compiler/MinGW64/x86_64-w64-mingw32/include\stdio.h **** #define stderr (__acrt_iob_func(2))
 119:C:/Compiler/MinGW64/x86_64-w64-mingw32/include\stdio.h **** #endif
 120:C:/Compiler/MinGW64/x86_64-w64-mingw32/include\stdio.h **** 
 121:C:/Compiler/MinGW64/x86_64-w64-mingw32/include\stdio.h **** #define _IOREAD 0x0001
 122:C:/Compiler/MinGW64/x86_64-w64-mingw32/include\stdio.h **** #define _IOWRT 0x0002
 123:C:/Compiler/MinGW64/x86_64-w64-mingw32/include\stdio.h **** 
 124:C:/Compiler/MinGW64/x86_64-w64-mingw32/include\stdio.h **** #define _IOFBF 0x0000
 125:C:/Compiler/MinGW64/x86_64-w64-mingw32/include\stdio.h **** #define _IOLBF 0x0040
 126:C:/Compiler/MinGW64/x86_64-w64-mingw32/include\stdio.h **** #define _IONBF 0x0004
 127:C:/Compiler/MinGW64/x86_64-w64-mingw32/include\stdio.h **** 
 128:C:/Compiler/MinGW64/x86_64-w64-mingw32/include\stdio.h **** #define _IOMYBUF 0x0008
 129:C:/Compiler/MinGW64/x86_64-w64-mingw32/include\stdio.h **** #define _IOEOF 0x0010
 130:C:/Compiler/MinGW64/x86_64-w64-mingw32/include\stdio.h **** #define _IOERR 0x0020
 131:C:/Compiler/MinGW64/x86_64-w64-mingw32/include\stdio.h **** #define _IOSTRG 0x0040
 132:C:/Compiler/MinGW64/x86_64-w64-mingw32/include\stdio.h **** #define _IORW 0x0080
 133:C:/Compiler/MinGW64/x86_64-w64-mingw32/include\stdio.h **** #ifdef _POSIX_
 134:C:/Compiler/MinGW64/x86_64-w64-mingw32/include\stdio.h **** #define _IOAPPEND 0x0200
 135:C:/Compiler/MinGW64/x86_64-w64-mingw32/include\stdio.h **** #endif
 136:C:/Compiler/MinGW64/x86_64-w64-mingw32/include\stdio.h **** 
 137:C:/Compiler/MinGW64/x86_64-w64-mingw32/include\stdio.h **** #define _TWO_DIGIT_EXPONENT 0x1
 138:C:/Compiler/MinGW64/x86_64-w64-mingw32/include\stdio.h **** 
 139:C:/Compiler/MinGW64/x86_64-w64-mingw32/include\stdio.h **** #if !defined(_UCRTBASE_STDIO_DEFINED) && __MSVCRT_VERSION__ >= 0x1400
 140:C:/Compiler/MinGW64/x86_64-w64-mingw32/include\stdio.h **** #define _UCRTBASE_STDIO_DEFINED
 141:C:/Compiler/MinGW64/x86_64-w64-mingw32/include\stdio.h **** 
 142:C:/Compiler/MinGW64/x86_64-w64-mingw32/include\stdio.h **** #define UCRTBASE_PRINTF_LEGACY_VSPRINTF_NULL_TERMINATION (0x0001)
 143:C:/Compiler/MinGW64/x86_64-w64-mingw32/include\stdio.h **** #define UCRTBASE_PRINTF_STANDARD_SNPRINTF_BEHAVIOUR      (0x0002)
 144:C:/Compiler/MinGW64/x86_64-w64-mingw32/include\stdio.h **** #define UCRTBASE_PRINTF_LEGACY_WIDE_SPECIFIERS           (0x0004)
 145:C:/Compiler/MinGW64/x86_64-w64-mingw32/include\stdio.h **** #define UCRTBASE_PRINTF_LEGACY_MSVCRT_COMPATIBILITY      (0x0008)
 146:C:/Compiler/MinGW64/x86_64-w64-mingw32/include\stdio.h **** #define UCRTBASE_PRINTF_LEGACY_THREE_DIGIT_EXPONENTS     (0x0010)
 147:C:/Compiler/MinGW64/x86_64-w64-mingw32/include\stdio.h **** 
 148:C:/Compiler/MinGW64/x86_64-w64-mingw32/include\stdio.h **** #define UCRTBASE_SCANF_SECURECRT                         (0x0001)
 149:C:/Compiler/MinGW64/x86_64-w64-mingw32/include\stdio.h **** #define UCRTBASE_SCANF_LEGACY_WIDE_SPECIFIERS            (0x0002)
 150:C:/Compiler/MinGW64/x86_64-w64-mingw32/include\stdio.h **** #define UCRTBASE_SCANF_LEGACY_MSVCRT_COMPATIBILITY       (0x0004)
 151:C:/Compiler/MinGW64/x86_64-w64-mingw32/include\stdio.h **** 
 152:C:/Compiler/MinGW64/x86_64-w64-mingw32/include\stdio.h **** // Default wide printfs and scanfs to the standard mode
 153:C:/Compiler/MinGW64/x86_64-w64-mingw32/include\stdio.h **** #ifndef UCRTBASE_PRINTF_DEFAULT_WIDE
 154:C:/Compiler/MinGW64/x86_64-w64-mingw32/include\stdio.h **** #define UCRTBASE_PRINTF_DEFAULT_WIDE 0
 155:C:/Compiler/MinGW64/x86_64-w64-mingw32/include\stdio.h **** #endif
 156:C:/Compiler/MinGW64/x86_64-w64-mingw32/include\stdio.h **** #ifndef UCRTBASE_SCANF_DEFAULT_WIDE
 157:C:/Compiler/MinGW64/x86_64-w64-mingw32/include\stdio.h **** #define UCRTBASE_SCANF_DEFAULT_WIDE 0
 158:C:/Compiler/MinGW64/x86_64-w64-mingw32/include\stdio.h **** #endif
 159:C:/Compiler/MinGW64/x86_64-w64-mingw32/include\stdio.h **** #endif
 160:C:/Compiler/MinGW64/x86_64-w64-mingw32/include\stdio.h **** 
 161:C:/Compiler/MinGW64/x86_64-w64-mingw32/include\stdio.h **** #ifndef _STDIO_DEFINED
 162:C:/Compiler/MinGW64/x86_64-w64-mingw32/include\stdio.h **** extern
 163:C:/Compiler/MinGW64/x86_64-w64-mingw32/include\stdio.h ****   __attribute__((__format__ (gnu_scanf, 2, 3))) __MINGW_ATTRIB_NONNULL(2)
 164:C:/Compiler/MinGW64/x86_64-w64-mingw32/include\stdio.h ****   int __cdecl __mingw_sscanf(const char * __restrict__ _Src,const char * __restrict__ _Format,...);
 165:C:/Compiler/MinGW64/x86_64-w64-mingw32/include\stdio.h **** extern
 166:C:/Compiler/MinGW64/x86_64-w64-mingw32/include\stdio.h ****   __attribute__((__format__ (gnu_scanf, 2, 0))) __MINGW_ATTRIB_NONNULL(2)
 167:C:/Compiler/MinGW64/x86_64-w64-mingw32/include\stdio.h ****   int __cdecl __mingw_vsscanf (const char * __restrict__ _Str,const char * __restrict__ Format,va_l
 168:C:/Compiler/MinGW64/x86_64-w64-mingw32/include\stdio.h **** extern
 169:C:/Compiler/MinGW64/x86_64-w64-mingw32/include\stdio.h ****   __attribute__((__format__ (gnu_scanf, 1, 2))) __MINGW_ATTRIB_NONNULL(1)
 170:C:/Compiler/MinGW64/x86_64-w64-mingw32/include\stdio.h ****   int __cdecl __mingw_scanf(const char * __restrict__ _Format,...);
 171:C:/Compiler/MinGW64/x86_64-w64-mingw32/include\stdio.h **** extern
 172:C:/Compiler/MinGW64/x86_64-w64-mingw32/include\stdio.h ****   __attribute__((__format__ (gnu_scanf, 1, 0))) __MINGW_ATTRIB_NONNULL(1)
 173:C:/Compiler/MinGW64/x86_64-w64-mingw32/include\stdio.h ****   int __cdecl __mingw_vscanf(const char * __restrict__ Format, va_list argp);
 174:C:/Compiler/MinGW64/x86_64-w64-mingw32/include\stdio.h **** extern
 175:C:/Compiler/MinGW64/x86_64-w64-mingw32/include\stdio.h ****   __attribute__((__format__ (gnu_scanf, 2, 3))) __MINGW_ATTRIB_NONNULL(2)
 176:C:/Compiler/MinGW64/x86_64-w64-mingw32/include\stdio.h ****   int __cdecl __mingw_fscanf(FILE * __restrict__ _File,const char * __restrict__ _Format,...);
 177:C:/Compiler/MinGW64/x86_64-w64-mingw32/include\stdio.h **** extern
 178:C:/Compiler/MinGW64/x86_64-w64-mingw32/include\stdio.h ****   __attribute__((__format__ (gnu_scanf, 2, 0))) __MINGW_ATTRIB_NONNULL(2)
 179:C:/Compiler/MinGW64/x86_64-w64-mingw32/include\stdio.h ****   int __cdecl __mingw_vfscanf (FILE * __restrict__ fp, const char * __restrict__ Format,va_list arg
 180:C:/Compiler/MinGW64/x86_64-w64-mingw32/include\stdio.h **** 
 181:C:/Compiler/MinGW64/x86_64-w64-mingw32/include\stdio.h **** extern
 182:C:/Compiler/MinGW64/x86_64-w64-mingw32/include\stdio.h ****   __attribute__((__format__ (gnu_printf, 3, 0))) __MINGW_ATTRIB_NONNULL(3)
 183:C:/Compiler/MinGW64/x86_64-w64-mingw32/include\stdio.h ****   int __cdecl __mingw_vsnprintf(char * __restrict__ _DstBuf,size_t _MaxCount,const char * __restric
 184:C:/Compiler/MinGW64/x86_64-w64-mingw32/include\stdio.h ****                                va_list _ArgList);
 185:C:/Compiler/MinGW64/x86_64-w64-mingw32/include\stdio.h **** extern
 186:C:/Compiler/MinGW64/x86_64-w64-mingw32/include\stdio.h ****   __attribute__((__format__ (gnu_printf, 3, 4))) __MINGW_ATTRIB_NONNULL(3)
 187:C:/Compiler/MinGW64/x86_64-w64-mingw32/include\stdio.h ****   int __cdecl __mingw_snprintf(char * __restrict__ s, size_t n, const char * __restrict__  format, 
 188:C:/Compiler/MinGW64/x86_64-w64-mingw32/include\stdio.h **** extern
 189:C:/Compiler/MinGW64/x86_64-w64-mingw32/include\stdio.h ****   __attribute__((__format__ (gnu_printf, 1, 2))) __MINGW_ATTRIB_NONNULL(1)
 190:C:/Compiler/MinGW64/x86_64-w64-mingw32/include\stdio.h ****   int __cdecl __mingw_printf(const char * __restrict__ , ... ) __MINGW_NOTHROW;
 191:C:/Compiler/MinGW64/x86_64-w64-mingw32/include\stdio.h **** extern
 192:C:/Compiler/MinGW64/x86_64-w64-mingw32/include\stdio.h ****   __attribute__((__format__ (gnu_printf, 1, 0))) __MINGW_ATTRIB_NONNULL(1)
 193:C:/Compiler/MinGW64/x86_64-w64-mingw32/include\stdio.h ****   int __cdecl __mingw_vprintf (const char * __restrict__ , va_list) __MINGW_NOTHROW;
 194:C:/Compiler/MinGW64/x86_64-w64-mingw32/include\stdio.h **** extern
 195:C:/Compiler/MinGW64/x86_64-w64-mingw32/include\stdio.h ****   __attribute__((__format__ (gnu_printf, 2, 3))) __MINGW_ATTRIB_NONNULL(2)
 196:C:/Compiler/MinGW64/x86_64-w64-mingw32/include\stdio.h ****   int __cdecl __mingw_fprintf (FILE * __restrict__ , const char * __restrict__ , ...) __MINGW_NOTHR
 197:C:/Compiler/MinGW64/x86_64-w64-mingw32/include\stdio.h **** extern
 198:C:/Compiler/MinGW64/x86_64-w64-mingw32/include\stdio.h ****   __attribute__((__format__ (gnu_printf, 2, 0))) __MINGW_ATTRIB_NONNULL(2)
 199:C:/Compiler/MinGW64/x86_64-w64-mingw32/include\stdio.h ****   int __cdecl __mingw_vfprintf (FILE * __restrict__ , const char * __restrict__ , va_list) __MINGW_
 200:C:/Compiler/MinGW64/x86_64-w64-mingw32/include\stdio.h **** extern
 201:C:/Compiler/MinGW64/x86_64-w64-mingw32/include\stdio.h ****   __attribute__((__format__ (gnu_printf, 2, 3))) __MINGW_ATTRIB_NONNULL(2)
 202:C:/Compiler/MinGW64/x86_64-w64-mingw32/include\stdio.h ****   int __cdecl __mingw_sprintf (char * __restrict__ , const char * __restrict__ , ...) __MINGW_NOTHR
 203:C:/Compiler/MinGW64/x86_64-w64-mingw32/include\stdio.h **** extern
 204:C:/Compiler/MinGW64/x86_64-w64-mingw32/include\stdio.h ****   __attribute__((__format__ (gnu_printf, 2, 0))) __MINGW_ATTRIB_NONNULL(2)
 205:C:/Compiler/MinGW64/x86_64-w64-mingw32/include\stdio.h ****   int __cdecl __mingw_vsprintf (char * __restrict__ , const char * __restrict__ , va_list) __MINGW_
 206:C:/Compiler/MinGW64/x86_64-w64-mingw32/include\stdio.h **** extern
 207:C:/Compiler/MinGW64/x86_64-w64-mingw32/include\stdio.h ****   __attribute__((__format__ (gnu_printf, 2, 3))) __attribute__((nonnull (1,2)))
 208:C:/Compiler/MinGW64/x86_64-w64-mingw32/include\stdio.h ****   int __cdecl __mingw_asprintf(char ** __restrict__ , const char * __restrict__ , ...) __MINGW_NOTH
 209:C:/Compiler/MinGW64/x86_64-w64-mingw32/include\stdio.h **** extern
 210:C:/Compiler/MinGW64/x86_64-w64-mingw32/include\stdio.h ****   __attribute__((__format__ (gnu_printf, 2, 0))) __attribute__((nonnull (1,2)))
 211:C:/Compiler/MinGW64/x86_64-w64-mingw32/include\stdio.h ****   int __cdecl __mingw_vasprintf(char ** __restrict__ , const char * __restrict__ , va_list) __MINGW
 212:C:/Compiler/MinGW64/x86_64-w64-mingw32/include\stdio.h **** 
 213:C:/Compiler/MinGW64/x86_64-w64-mingw32/include\stdio.h **** #if __MSVCRT_VERSION__ >= 0x1400
 214:C:/Compiler/MinGW64/x86_64-w64-mingw32/include\stdio.h ****   int __cdecl __stdio_common_vsprintf(unsigned __int64 options, char *str, size_t len, const char *
 215:C:/Compiler/MinGW64/x86_64-w64-mingw32/include\stdio.h ****   int __cdecl __stdio_common_vfprintf(unsigned __int64 options, FILE *file, const char *format, _lo
 216:C:/Compiler/MinGW64/x86_64-w64-mingw32/include\stdio.h ****   int __cdecl __stdio_common_vsscanf(unsigned __int64 options, const char *input, size_t length, co
 217:C:/Compiler/MinGW64/x86_64-w64-mingw32/include\stdio.h ****   int __cdecl __stdio_common_vfscanf(unsigned __int64 options, FILE *file, const char *format, _loc
 218:C:/Compiler/MinGW64/x86_64-w64-mingw32/include\stdio.h **** #endif
 219:C:/Compiler/MinGW64/x86_64-w64-mingw32/include\stdio.h **** 
 220:C:/Compiler/MinGW64/x86_64-w64-mingw32/include\stdio.h **** #undef __MINGW_PRINTF_FORMAT
 221:C:/Compiler/MinGW64/x86_64-w64-mingw32/include\stdio.h **** #undef __MINGW_SCANF_FORMAT
 222:C:/Compiler/MinGW64/x86_64-w64-mingw32/include\stdio.h **** 
 223:C:/Compiler/MinGW64/x86_64-w64-mingw32/include\stdio.h **** #if defined(__clang__)
 224:C:/Compiler/MinGW64/x86_64-w64-mingw32/include\stdio.h **** #define __MINGW_PRINTF_FORMAT printf
 225:C:/Compiler/MinGW64/x86_64-w64-mingw32/include\stdio.h **** #define __MINGW_SCANF_FORMAT  scanf
 226:C:/Compiler/MinGW64/x86_64-w64-mingw32/include\stdio.h **** #elif defined(__USE_MINGW_ANSI_STDIO)
 227:C:/Compiler/MinGW64/x86_64-w64-mingw32/include\stdio.h **** #define __MINGW_PRINTF_FORMAT gnu_printf
 228:C:/Compiler/MinGW64/x86_64-w64-mingw32/include\stdio.h **** #define __MINGW_SCANF_FORMAT  gnu_scanf
 229:C:/Compiler/MinGW64/x86_64-w64-mingw32/include\stdio.h **** #else
 230:C:/Compiler/MinGW64/x86_64-w64-mingw32/include\stdio.h **** #define __MINGW_PRINTF_FORMAT ms_printf
 231:C:/Compiler/MinGW64/x86_64-w64-mingw32/include\stdio.h **** #define __MINGW_SCANF_FORMAT  ms_scanf
 232:C:/Compiler/MinGW64/x86_64-w64-mingw32/include\stdio.h **** #endif
 233:C:/Compiler/MinGW64/x86_64-w64-mingw32/include\stdio.h **** 
 234:C:/Compiler/MinGW64/x86_64-w64-mingw32/include\stdio.h **** #if __USE_MINGW_ANSI_STDIO
 235:C:/Compiler/MinGW64/x86_64-w64-mingw32/include\stdio.h **** /*
 236:C:/Compiler/MinGW64/x86_64-w64-mingw32/include\stdio.h ****  * User has expressed a preference for C99 conformance...
 237:C:/Compiler/MinGW64/x86_64-w64-mingw32/include\stdio.h ****  */
 238:C:/Compiler/MinGW64/x86_64-w64-mingw32/include\stdio.h **** 
 239:C:/Compiler/MinGW64/x86_64-w64-mingw32/include\stdio.h **** #ifdef _GNU_SOURCE
 240:C:/Compiler/MinGW64/x86_64-w64-mingw32/include\stdio.h **** __mingw_ovr
 241:C:/Compiler/MinGW64/x86_64-w64-mingw32/include\stdio.h **** __attribute__ ((__format__ (gnu_printf, 2, 3))) __attribute__((nonnull (1,2)))
 242:C:/Compiler/MinGW64/x86_64-w64-mingw32/include\stdio.h **** int asprintf(char **__ret, const char *__format, ...)
 243:C:/Compiler/MinGW64/x86_64-w64-mingw32/include\stdio.h **** {
 244:C:/Compiler/MinGW64/x86_64-w64-mingw32/include\stdio.h ****   int __retval;
 245:C:/Compiler/MinGW64/x86_64-w64-mingw32/include\stdio.h ****   __builtin_va_list __local_argv; __builtin_va_start( __local_argv, __format );
 246:C:/Compiler/MinGW64/x86_64-w64-mingw32/include\stdio.h ****   __retval = __mingw_vasprintf( __ret, __format, __local_argv );
 247:C:/Compiler/MinGW64/x86_64-w64-mingw32/include\stdio.h ****   __builtin_va_end( __local_argv );
 248:C:/Compiler/MinGW64/x86_64-w64-mingw32/include\stdio.h ****   return __retval;
 249:C:/Compiler/MinGW64/x86_64-w64-mingw32/include\stdio.h **** }
 250:C:/Compiler/MinGW64/x86_64-w64-mingw32/include\stdio.h **** 
 251:C:/Compiler/MinGW64/x86_64-w64-mingw32/include\stdio.h **** __mingw_ovr
 252:C:/Compiler/MinGW64/x86_64-w64-mingw32/include\stdio.h **** __attribute__ ((__format__ (gnu_printf, 2, 0))) __attribute__((nonnull (1,2)))
 253:C:/Compiler/MinGW64/x86_64-w64-mingw32/include\stdio.h **** int vasprintf(char **__ret, const char *__format, __builtin_va_list __local_argv)
 254:C:/Compiler/MinGW64/x86_64-w64-mingw32/include\stdio.h **** {
 255:C:/Compiler/MinGW64/x86_64-w64-mingw32/include\stdio.h ****   return __mingw_vasprintf( __ret, __format, __local_argv );
 256:C:/Compiler/MinGW64/x86_64-w64-mingw32/include\stdio.h **** }
 257:C:/Compiler/MinGW64/x86_64-w64-mingw32/include\stdio.h **** #endif /* _GNU_SOURCE */
 258:C:/Compiler/MinGW64/x86_64-w64-mingw32/include\stdio.h **** 
 259:C:/Compiler/MinGW64/x86_64-w64-mingw32/include\stdio.h **** /* There seems to be a bug about builtins and static overrides of them
 260:C:/Compiler/MinGW64/x86_64-w64-mingw32/include\stdio.h ****    in g++.  So we need to do here some trickery.  */
 261:C:/Compiler/MinGW64/x86_64-w64-mingw32/include\stdio.h **** #ifdef __cplusplus
 262:C:/Compiler/MinGW64/x86_64-w64-mingw32/include\stdio.h **** extern "C++" {
 263:C:/Compiler/MinGW64/x86_64-w64-mingw32/include\stdio.h **** #endif
 264:C:/Compiler/MinGW64/x86_64-w64-mingw32/include\stdio.h **** 
 265:C:/Compiler/MinGW64/x86_64-w64-mingw32/include\stdio.h **** __mingw_ovr
 266:C:/Compiler/MinGW64/x86_64-w64-mingw32/include\stdio.h **** __attribute__((__format__ (gnu_scanf, 2, 3))) __MINGW_ATTRIB_NONNULL(2)
 267:C:/Compiler/MinGW64/x86_64-w64-mingw32/include\stdio.h **** int sscanf(const char *__source, const char *__format, ...)
 268:C:/Compiler/MinGW64/x86_64-w64-mingw32/include\stdio.h **** {
 269:C:/Compiler/MinGW64/x86_64-w64-mingw32/include\stdio.h ****   int __retval;
 270:C:/Compiler/MinGW64/x86_64-w64-mingw32/include\stdio.h ****   __builtin_va_list __local_argv; __builtin_va_start( __local_argv, __format );
 271:C:/Compiler/MinGW64/x86_64-w64-mingw32/include\stdio.h ****   __retval = __mingw_vsscanf( __source, __format, __local_argv );
 272:C:/Compiler/MinGW64/x86_64-w64-mingw32/include\stdio.h ****   __builtin_va_end( __local_argv );
 273:C:/Compiler/MinGW64/x86_64-w64-mingw32/include\stdio.h ****   return __retval;
 274:C:/Compiler/MinGW64/x86_64-w64-mingw32/include\stdio.h **** }
 275:C:/Compiler/MinGW64/x86_64-w64-mingw32/include\stdio.h **** 
 276:C:/Compiler/MinGW64/x86_64-w64-mingw32/include\stdio.h **** __mingw_ovr
 277:C:/Compiler/MinGW64/x86_64-w64-mingw32/include\stdio.h **** __attribute__((__format__ (gnu_scanf, 1, 2))) __MINGW_ATTRIB_NONNULL(1)
 278:C:/Compiler/MinGW64/x86_64-w64-mingw32/include\stdio.h **** int scanf(const char *__format, ...)
 279:C:/Compiler/MinGW64/x86_64-w64-mingw32/include\stdio.h **** {
  13              		.loc 1 279 1
  14              		.cfi_startproc
  15 0000 55       		pushq	%rbp
  16              		.seh_pushreg	%rbp
  17              		.cfi_def_cfa_offset 16
  18              		.cfi_offset 6, -16
  19 0001 53       		pushq	%rbx
  20              		.seh_pushreg	%rbx
  21              		.cfi_def_cfa_offset 24
  22              		.cfi_offset 3, -24
  23 0002 4883EC38 		subq	$56, %rsp
  24              		.seh_stackalloc	56
  25              		.cfi_def_cfa_offset 80
  26 0006 488DAC24 		leaq	128(%rsp), %rbp
  26      80000000 
  27              		.seh_setframe	%rbp, 128
  28              		.cfi_def_cfa 6, -48
  29              		.seh_endprologue
  30 000e 48894DD0 		movq	%rcx, -48(%rbp)
  31 0012 488955D8 		movq	%rdx, -40(%rbp)
  32 0016 4C8945E0 		movq	%r8, -32(%rbp)
  33 001a 4C894DE8 		movq	%r9, -24(%rbp)
 280:C:/Compiler/MinGW64/x86_64-w64-mingw32/include\stdio.h ****   int __retval;
 281:C:/Compiler/MinGW64/x86_64-w64-mingw32/include\stdio.h ****   __builtin_va_list __local_argv; __builtin_va_start( __local_argv, __format );
  34              		.loc 1 281 53
  35 001e 488D45D8 		leaq	-40(%rbp), %rax
  36 0022 488945A0 		movq	%rax, -96(%rbp)
 282:C:/Compiler/MinGW64/x86_64-w64-mingw32/include\stdio.h ****   __retval = __mingw_vfscanf( stdin, __format, __local_argv );
  37              		.loc 1 282 29
  38 0026 488B5DA0 		movq	-96(%rbp), %rbx
  39 002a B9000000 		movl	$0, %ecx
  39      00
  40 002f 488B0500 		movq	__imp___acrt_iob_func(%rip), %rax
  40      000000
  41 0036 FFD0     		call	*%rax
  42              	.LVL0:
  43 0038 4989D8   		movq	%rbx, %r8
  44 003b 488B55D0 		movq	-48(%rbp), %rdx
  45 003f 4889C1   		movq	%rax, %rcx
  46 0042 E8000000 		call	__mingw_vfscanf
  46      00
  47 0047 8945AC   		movl	%eax, -84(%rbp)
 283:C:/Compiler/MinGW64/x86_64-w64-mingw32/include\stdio.h ****   __builtin_va_end( __local_argv );
 284:C:/Compiler/MinGW64/x86_64-w64-mingw32/include\stdio.h ****   return __retval;
  48              		.loc 1 284 10
  49 004a 8B45AC   		movl	-84(%rbp), %eax
 285:C:/Compiler/MinGW64/x86_64-w64-mingw32/include\stdio.h **** }
  50              		.loc 1 285 1
  51 004d 4883C438 		addq	$56, %rsp
  52 0051 5B       		popq	%rbx
  53              		.cfi_restore 3
  54 0052 5D       		popq	%rbp
  55              		.cfi_restore 6
  56              		.cfi_def_cfa 7, -40
  57 0053 C3       		ret
  58              		.cfi_endproc
  59              	.LFE2:
  60              		.seh_endproc
  61 0054 90909090 		.section	.text$_Z6printfPKcz,"x"
  61      90909090 
  61      90909090 
  62              		.linkonce discard
  63              		.globl	_Z6printfPKcz
  65              		.seh_proc	_Z6printfPKcz
  66              	_Z6printfPKcz:
  67              	.LFB8:
 286:C:/Compiler/MinGW64/x86_64-w64-mingw32/include\stdio.h **** 
 287:C:/Compiler/MinGW64/x86_64-w64-mingw32/include\stdio.h **** __mingw_ovr
 288:C:/Compiler/MinGW64/x86_64-w64-mingw32/include\stdio.h **** __attribute__((__format__ (gnu_scanf, 2, 3))) __MINGW_ATTRIB_NONNULL(2)
 289:C:/Compiler/MinGW64/x86_64-w64-mingw32/include\stdio.h **** int fscanf(FILE *__stream, const char *__format, ...)
 290:C:/Compiler/MinGW64/x86_64-w64-mingw32/include\stdio.h **** {
 291:C:/Compiler/MinGW64/x86_64-w64-mingw32/include\stdio.h ****   int __retval;
 292:C:/Compiler/MinGW64/x86_64-w64-mingw32/include\stdio.h ****   __builtin_va_list __local_argv; __builtin_va_start( __local_argv, __format );
 293:C:/Compiler/MinGW64/x86_64-w64-mingw32/include\stdio.h ****   __retval = __mingw_vfscanf( __stream, __format, __local_argv );
 294:C:/Compiler/MinGW64/x86_64-w64-mingw32/include\stdio.h ****   __builtin_va_end( __local_argv );
 295:C:/Compiler/MinGW64/x86_64-w64-mingw32/include\stdio.h ****   return __retval;
 296:C:/Compiler/MinGW64/x86_64-w64-mingw32/include\stdio.h **** }
 297:C:/Compiler/MinGW64/x86_64-w64-mingw32/include\stdio.h **** 
 298:C:/Compiler/MinGW64/x86_64-w64-mingw32/include\stdio.h **** #ifndef __NO_ISOCEXT  /* externs in libmingwex.a */
 299:C:/Compiler/MinGW64/x86_64-w64-mingw32/include\stdio.h **** #ifdef __GNUC__
 300:C:/Compiler/MinGW64/x86_64-w64-mingw32/include\stdio.h **** #pragma GCC diagnostic push
 301:C:/Compiler/MinGW64/x86_64-w64-mingw32/include\stdio.h **** #pragma GCC diagnostic ignored "-Wshadow"
 302:C:/Compiler/MinGW64/x86_64-w64-mingw32/include\stdio.h **** #endif
 303:C:/Compiler/MinGW64/x86_64-w64-mingw32/include\stdio.h **** 
 304:C:/Compiler/MinGW64/x86_64-w64-mingw32/include\stdio.h **** __mingw_ovr
 305:C:/Compiler/MinGW64/x86_64-w64-mingw32/include\stdio.h **** __attribute__((__format__ (gnu_scanf, 2, 0))) __MINGW_ATTRIB_NONNULL(2)
 306:C:/Compiler/MinGW64/x86_64-w64-mingw32/include\stdio.h **** int vsscanf (const char *__source, const char *__format, __builtin_va_list __local_argv)
 307:C:/Compiler/MinGW64/x86_64-w64-mingw32/include\stdio.h **** {
 308:C:/Compiler/MinGW64/x86_64-w64-mingw32/include\stdio.h ****   return __mingw_vsscanf( __source, __format, __local_argv );
 309:C:/Compiler/MinGW64/x86_64-w64-mingw32/include\stdio.h **** }
 310:C:/Compiler/MinGW64/x86_64-w64-mingw32/include\stdio.h **** 
 311:C:/Compiler/MinGW64/x86_64-w64-mingw32/include\stdio.h **** __mingw_ovr
 312:C:/Compiler/MinGW64/x86_64-w64-mingw32/include\stdio.h **** __attribute__((__format__ (gnu_scanf, 1, 0))) __MINGW_ATTRIB_NONNULL(1)
 313:C:/Compiler/MinGW64/x86_64-w64-mingw32/include\stdio.h **** int vscanf(const char *__format,  __builtin_va_list __local_argv)
 314:C:/Compiler/MinGW64/x86_64-w64-mingw32/include\stdio.h **** {
 315:C:/Compiler/MinGW64/x86_64-w64-mingw32/include\stdio.h ****   return __mingw_vfscanf( stdin, __format, __local_argv );
 316:C:/Compiler/MinGW64/x86_64-w64-mingw32/include\stdio.h **** }
 317:C:/Compiler/MinGW64/x86_64-w64-mingw32/include\stdio.h **** 
 318:C:/Compiler/MinGW64/x86_64-w64-mingw32/include\stdio.h **** __mingw_ovr
 319:C:/Compiler/MinGW64/x86_64-w64-mingw32/include\stdio.h **** __attribute__((__format__ (gnu_scanf, 2, 0))) __MINGW_ATTRIB_NONNULL(2)
 320:C:/Compiler/MinGW64/x86_64-w64-mingw32/include\stdio.h **** int vfscanf (FILE *__stream,  const char *__format, __builtin_va_list __local_argv)
 321:C:/Compiler/MinGW64/x86_64-w64-mingw32/include\stdio.h **** {
 322:C:/Compiler/MinGW64/x86_64-w64-mingw32/include\stdio.h ****   return __mingw_vfscanf( __stream, __format, __local_argv );
 323:C:/Compiler/MinGW64/x86_64-w64-mingw32/include\stdio.h **** }
 324:C:/Compiler/MinGW64/x86_64-w64-mingw32/include\stdio.h **** 
 325:C:/Compiler/MinGW64/x86_64-w64-mingw32/include\stdio.h **** #ifdef __GNUC__
 326:C:/Compiler/MinGW64/x86_64-w64-mingw32/include\stdio.h **** #pragma GCC diagnostic pop
 327:C:/Compiler/MinGW64/x86_64-w64-mingw32/include\stdio.h **** #endif
 328:C:/Compiler/MinGW64/x86_64-w64-mingw32/include\stdio.h **** #endif /* __NO_ISOCEXT */
 329:C:/Compiler/MinGW64/x86_64-w64-mingw32/include\stdio.h **** 
 330:C:/Compiler/MinGW64/x86_64-w64-mingw32/include\stdio.h **** 
 331:C:/Compiler/MinGW64/x86_64-w64-mingw32/include\stdio.h **** 
 332:C:/Compiler/MinGW64/x86_64-w64-mingw32/include\stdio.h **** __mingw_ovr
 333:C:/Compiler/MinGW64/x86_64-w64-mingw32/include\stdio.h **** __attribute__((__format__ (gnu_printf, 2, 3))) __MINGW_ATTRIB_NONNULL(2)
 334:C:/Compiler/MinGW64/x86_64-w64-mingw32/include\stdio.h **** int fprintf (FILE *__stream, const char *__format, ...)
 335:C:/Compiler/MinGW64/x86_64-w64-mingw32/include\stdio.h **** {
 336:C:/Compiler/MinGW64/x86_64-w64-mingw32/include\stdio.h ****   int __retval;
 337:C:/Compiler/MinGW64/x86_64-w64-mingw32/include\stdio.h ****   __builtin_va_list __local_argv; __builtin_va_start( __local_argv, __format );
 338:C:/Compiler/MinGW64/x86_64-w64-mingw32/include\stdio.h ****   __retval = __mingw_vfprintf( __stream, __format, __local_argv );
 339:C:/Compiler/MinGW64/x86_64-w64-mingw32/include\stdio.h ****   __builtin_va_end( __local_argv );
 340:C:/Compiler/MinGW64/x86_64-w64-mingw32/include\stdio.h ****   return __retval;
 341:C:/Compiler/MinGW64/x86_64-w64-mingw32/include\stdio.h **** }
 342:C:/Compiler/MinGW64/x86_64-w64-mingw32/include\stdio.h **** 
 343:C:/Compiler/MinGW64/x86_64-w64-mingw32/include\stdio.h **** __mingw_ovr
 344:C:/Compiler/MinGW64/x86_64-w64-mingw32/include\stdio.h **** __attribute__((__format__ (gnu_printf, 1, 2))) __MINGW_ATTRIB_NONNULL(1)
 345:C:/Compiler/MinGW64/x86_64-w64-mingw32/include\stdio.h **** int printf (const char *__format, ...)
 346:C:/Compiler/MinGW64/x86_64-w64-mingw32/include\stdio.h **** {
  68              		.loc 1 346 1
  69              		.cfi_startproc
  70 0000 55       		pushq	%rbp
  71              		.seh_pushreg	%rbp
  72              		.cfi_def_cfa_offset 16
  73              		.cfi_offset 6, -16
  74 0001 53       		pushq	%rbx
  75              		.seh_pushreg	%rbx
  76              		.cfi_def_cfa_offset 24
  77              		.cfi_offset 3, -24
  78 0002 4883EC38 		subq	$56, %rsp
  79              		.seh_stackalloc	56
  80              		.cfi_def_cfa_offset 80
  81 0006 488DAC24 		leaq	128(%rsp), %rbp
  81      80000000 
  82              		.seh_setframe	%rbp, 128
  83              		.cfi_def_cfa 6, -48
  84              		.seh_endprologue
  85 000e 48894DD0 		movq	%rcx, -48(%rbp)
  86 0012 488955D8 		movq	%rdx, -40(%rbp)
  87 0016 4C8945E0 		movq	%r8, -32(%rbp)
  88 001a 4C894DE8 		movq	%r9, -24(%rbp)
 347:C:/Compiler/MinGW64/x86_64-w64-mingw32/include\stdio.h ****   int __retval;
 348:C:/Compiler/MinGW64/x86_64-w64-mingw32/include\stdio.h ****   __builtin_va_list __local_argv; __builtin_va_start( __local_argv, __format );
  89              		.loc 1 348 53
  90 001e 488D45D8 		leaq	-40(%rbp), %rax
  91 0022 488945A0 		movq	%rax, -96(%rbp)
 349:C:/Compiler/MinGW64/x86_64-w64-mingw32/include\stdio.h ****   __retval = __mingw_vfprintf( stdout, __format, __local_argv );
  92              		.loc 1 349 30
  93 0026 488B5DA0 		movq	-96(%rbp), %rbx
  94 002a B9010000 		movl	$1, %ecx
  94      00
  95 002f 488B0500 		movq	__imp___acrt_iob_func(%rip), %rax
  95      000000
  96 0036 FFD0     		call	*%rax
  97              	.LVL1:
  98 0038 4989D8   		movq	%rbx, %r8
  99 003b 488B55D0 		movq	-48(%rbp), %rdx
 100 003f 4889C1   		movq	%rax, %rcx
 101 0042 E8000000 		call	__mingw_vfprintf
 101      00
 102 0047 8945AC   		movl	%eax, -84(%rbp)
 350:C:/Compiler/MinGW64/x86_64-w64-mingw32/include\stdio.h ****   __builtin_va_end( __local_argv );
 351:C:/Compiler/MinGW64/x86_64-w64-mingw32/include\stdio.h ****   return __retval;
 103              		.loc 1 351 10
 104 004a 8B45AC   		movl	-84(%rbp), %eax
 352:C:/Compiler/MinGW64/x86_64-w64-mingw32/include\stdio.h **** }
 105              		.loc 1 352 1
 106 004d 4883C438 		addq	$56, %rsp
 107 0051 5B       		popq	%rbx
 108              		.cfi_restore 3
 109 0052 5D       		popq	%rbp
 110              		.cfi_restore 6
 111              		.cfi_def_cfa 7, -40
 112 0053 C3       		ret
 113              		.cfi_endproc
 114              	.LFE8:
 115              		.seh_endproc
 116 0054 90909090 		.section .rdata,"dr"
 116      90909090 
 116      90909090 
 117              		.align 4
 118              	_ZL1P:
 119 0000 03000000 		.long	3
 121              	.LC0:
 122 0004 257500   		.ascii "%u\0"
 123 0007 00000000 		.text
 123      00000000 
 123      00
 124              		.globl	main
 126              		.seh_proc	main
 127              	main:
 128              	.LFB44:
 129              		.file 2 "../../../code/code/asm_test.cpp"
   1:../../../code/code/asm_test.cpp **** #include <cstdio>
   2:../../../code/code/asm_test.cpp **** using namespace std;
   3:../../../code/code/asm_test.cpp **** const unsigned int P = 3;
   4:../../../code/code/asm_test.cpp **** int main() {
 130              		.loc 2 4 12
 131              		.cfi_startproc
 132 0000 55       		pushq	%rbp
 133              		.seh_pushreg	%rbp
 134              		.cfi_def_cfa_offset 16
 135              		.cfi_offset 6, -16
 136 0001 4889E5   		movq	%rsp, %rbp
 137              		.seh_setframe	%rbp, 0
 138              		.cfi_def_cfa_register 6
 139 0004 4883EC30 		subq	$48, %rsp
 140              		.seh_stackalloc	48
 141              		.seh_endprologue
 142              		.loc 2 4 12
 143 0008 E8000000 		call	__main
 143      00
 144              	.LVL2:
   5:../../../code/code/asm_test.cpp ****     unsigned a;
   6:../../../code/code/asm_test.cpp ****     scanf("%u", &a);
 145              		.loc 2 6 10
 146 000d 488D45F8 		leaq	-8(%rbp), %rax
 147 0011 4889C2   		movq	%rax, %rdx
 148 0014 488D0D04 		leaq	.LC0(%rip), %rcx
 148      000000
 149 001b E8000000 		call	_Z5scanfPKcz
 149      00
   7:../../../code/code/asm_test.cpp ****     unsigned int b = a % P;
 150              		.loc 2 7 24
 151 0020 8B4DF8   		movl	-8(%rbp), %ecx
 152              		.loc 2 7 18
 153 0023 BAABAAAA 		movl	$-1431655765, %edx
 153      AA
 154 0028 89C8     		movl	%ecx, %eax
 155 002a F7E2     		mull	%edx
 156 002c 89D0     		movl	%edx, %eax
 157 002e D1E8     		shrl	%eax
 158 0030 8945FC   		movl	%eax, -4(%rbp)
 159 0033 8B55FC   		movl	-4(%rbp), %edx
 160 0036 89D0     		movl	%edx, %eax
 161 0038 01C0     		addl	%eax, %eax
 162 003a 01D0     		addl	%edx, %eax
 163 003c 29C1     		subl	%eax, %ecx
 164 003e 89C8     		movl	%ecx, %eax
 165 0040 8945FC   		movl	%eax, -4(%rbp)
   8:../../../code/code/asm_test.cpp ****     printf("%u", b);
 166              		.loc 2 8 11
 167 0043 8B45FC   		movl	-4(%rbp), %eax
 168 0046 89C2     		movl	%eax, %edx
 169 0048 488D0D04 		leaq	.LC0(%rip), %rcx
 169      000000
 170 004f E8000000 		call	_Z6printfPKcz
 170      00
   9:../../../code/code/asm_test.cpp **** }...
 171              		.loc 2 9 1
 172 0054 B8000000 		movl	$0, %eax
 172      00
 173 0059 4883C430 		addq	$48, %rsp
 174 005d 5D       		popq	%rbp
 175              		.cfi_restore 6
 176              		.cfi_def_cfa 7, 8
 177 005e C3       		ret
 178              		.cfi_endproc
 179              	.LFE44:
 180              		.seh_endproc
 181              	.Letext0:
 182              		.file 3 "C:/Compiler/MinGW64/lib/gcc/x86_64-w64-mingw32/8.1.0/include/c++/cstdio"
 183              		.file 4 "C:/Compiler/MinGW64/lib/gcc/x86_64-w64-mingw32/8.1.0/include/c++/x86_64-w64-mingw32/bits/
 184              		.file 5 "C:/Compiler/MinGW64/x86_64-w64-mingw32/include/crtdefs.h"
 185              		.file 6 "<built-in>"