   1              		.file	"19_1_DP.cpp"
   2              		.text
   3              	.Ltext0:
   4              		.cfi_sections	.debug_frame
   5              		.section	.text$_Z5scanfPKcz,"x"
   6              		.linkonce discard
   7              		.globl	_Z5scanfPKcz
   9              		.seh_proc	_Z5scanfPKcz
  10              	_Z5scanfPKcz:
  11              	.LFB476:
  12              		.file 1 "C:/Program Files/mingw-w64/x86_64-8.1.0-win32-seh-rt_v6-rev0/mingw64/x86_64-w64-mingw32/i
   1:C:/Program Files/mingw-w64/x86_64-8.1.0-win32-seh-rt_v6-rev0/mingw64/x86_64-w64-mingw32/include\stdio.h **** /**
   2:C:/Program Files/mingw-w64/x86_64-8.1.0-win32-seh-rt_v6-rev0/mingw64/x86_64-w64-mingw32/include\stdio.h ****  * This file has no copyright assigned and is placed in the Public Domain.
   3:C:/Program Files/mingw-w64/x86_64-8.1.0-win32-seh-rt_v6-rev0/mingw64/x86_64-w64-mingw32/include\stdio.h ****  * This file is part of the mingw-w64 runtime package.
   4:C:/Program Files/mingw-w64/x86_64-8.1.0-win32-seh-rt_v6-rev0/mingw64/x86_64-w64-mingw32/include\stdio.h ****  * No warranty is given; refer to the file DISCLAIMER.PD within this package.
   5:C:/Program Files/mingw-w64/x86_64-8.1.0-win32-seh-rt_v6-rev0/mingw64/x86_64-w64-mingw32/include\stdio.h ****  */
   6:C:/Program Files/mingw-w64/x86_64-8.1.0-win32-seh-rt_v6-rev0/mingw64/x86_64-w64-mingw32/include\stdio.h **** #ifndef _INC_STDIO
   7:C:/Program Files/mingw-w64/x86_64-8.1.0-win32-seh-rt_v6-rev0/mingw64/x86_64-w64-mingw32/include\stdio.h **** #define _INC_STDIO
   8:C:/Program Files/mingw-w64/x86_64-8.1.0-win32-seh-rt_v6-rev0/mingw64/x86_64-w64-mingw32/include\stdio.h **** 
   9:C:/Program Files/mingw-w64/x86_64-8.1.0-win32-seh-rt_v6-rev0/mingw64/x86_64-w64-mingw32/include\stdio.h **** #include <crtdefs.h>
  10:C:/Program Files/mingw-w64/x86_64-8.1.0-win32-seh-rt_v6-rev0/mingw64/x86_64-w64-mingw32/include\stdio.h **** 
  11:C:/Program Files/mingw-w64/x86_64-8.1.0-win32-seh-rt_v6-rev0/mingw64/x86_64-w64-mingw32/include\stdio.h **** #include <_mingw_print_push.h>
  12:C:/Program Files/mingw-w64/x86_64-8.1.0-win32-seh-rt_v6-rev0/mingw64/x86_64-w64-mingw32/include\stdio.h **** 
  13:C:/Program Files/mingw-w64/x86_64-8.1.0-win32-seh-rt_v6-rev0/mingw64/x86_64-w64-mingw32/include\stdio.h **** #pragma pack(push,_CRT_PACKING)
  14:C:/Program Files/mingw-w64/x86_64-8.1.0-win32-seh-rt_v6-rev0/mingw64/x86_64-w64-mingw32/include\stdio.h **** 
  15:C:/Program Files/mingw-w64/x86_64-8.1.0-win32-seh-rt_v6-rev0/mingw64/x86_64-w64-mingw32/include\stdio.h **** #ifdef __cplusplus
  16:C:/Program Files/mingw-w64/x86_64-8.1.0-win32-seh-rt_v6-rev0/mingw64/x86_64-w64-mingw32/include\stdio.h **** extern "C" {
  17:C:/Program Files/mingw-w64/x86_64-8.1.0-win32-seh-rt_v6-rev0/mingw64/x86_64-w64-mingw32/include\stdio.h **** #endif
  18:C:/Program Files/mingw-w64/x86_64-8.1.0-win32-seh-rt_v6-rev0/mingw64/x86_64-w64-mingw32/include\stdio.h **** 
  19:C:/Program Files/mingw-w64/x86_64-8.1.0-win32-seh-rt_v6-rev0/mingw64/x86_64-w64-mingw32/include\stdio.h **** #define BUFSIZ 512
  20:C:/Program Files/mingw-w64/x86_64-8.1.0-win32-seh-rt_v6-rev0/mingw64/x86_64-w64-mingw32/include\stdio.h **** #define _NFILE _NSTREAM_
  21:C:/Program Files/mingw-w64/x86_64-8.1.0-win32-seh-rt_v6-rev0/mingw64/x86_64-w64-mingw32/include\stdio.h **** #define _NSTREAM_ 512
  22:C:/Program Files/mingw-w64/x86_64-8.1.0-win32-seh-rt_v6-rev0/mingw64/x86_64-w64-mingw32/include\stdio.h **** #define _IOB_ENTRIES 20
  23:C:/Program Files/mingw-w64/x86_64-8.1.0-win32-seh-rt_v6-rev0/mingw64/x86_64-w64-mingw32/include\stdio.h **** #define EOF (-1)
  24:C:/Program Files/mingw-w64/x86_64-8.1.0-win32-seh-rt_v6-rev0/mingw64/x86_64-w64-mingw32/include\stdio.h **** 
  25:C:/Program Files/mingw-w64/x86_64-8.1.0-win32-seh-rt_v6-rev0/mingw64/x86_64-w64-mingw32/include\stdio.h **** #ifndef _FILE_DEFINED
  26:C:/Program Files/mingw-w64/x86_64-8.1.0-win32-seh-rt_v6-rev0/mingw64/x86_64-w64-mingw32/include\stdio.h ****   struct _iobuf {
  27:C:/Program Files/mingw-w64/x86_64-8.1.0-win32-seh-rt_v6-rev0/mingw64/x86_64-w64-mingw32/include\stdio.h ****     char *_ptr;
  28:C:/Program Files/mingw-w64/x86_64-8.1.0-win32-seh-rt_v6-rev0/mingw64/x86_64-w64-mingw32/include\stdio.h ****     int _cnt;
  29:C:/Program Files/mingw-w64/x86_64-8.1.0-win32-seh-rt_v6-rev0/mingw64/x86_64-w64-mingw32/include\stdio.h ****     char *_base;
  30:C:/Program Files/mingw-w64/x86_64-8.1.0-win32-seh-rt_v6-rev0/mingw64/x86_64-w64-mingw32/include\stdio.h ****     int _flag;
  31:C:/Program Files/mingw-w64/x86_64-8.1.0-win32-seh-rt_v6-rev0/mingw64/x86_64-w64-mingw32/include\stdio.h ****     int _file;
  32:C:/Program Files/mingw-w64/x86_64-8.1.0-win32-seh-rt_v6-rev0/mingw64/x86_64-w64-mingw32/include\stdio.h ****     int _charbuf;
  33:C:/Program Files/mingw-w64/x86_64-8.1.0-win32-seh-rt_v6-rev0/mingw64/x86_64-w64-mingw32/include\stdio.h ****     int _bufsiz;
  34:C:/Program Files/mingw-w64/x86_64-8.1.0-win32-seh-rt_v6-rev0/mingw64/x86_64-w64-mingw32/include\stdio.h ****     char *_tmpfname;
  35:C:/Program Files/mingw-w64/x86_64-8.1.0-win32-seh-rt_v6-rev0/mingw64/x86_64-w64-mingw32/include\stdio.h ****   };
  36:C:/Program Files/mingw-w64/x86_64-8.1.0-win32-seh-rt_v6-rev0/mingw64/x86_64-w64-mingw32/include\stdio.h ****   typedef struct _iobuf FILE;
  37:C:/Program Files/mingw-w64/x86_64-8.1.0-win32-seh-rt_v6-rev0/mingw64/x86_64-w64-mingw32/include\stdio.h **** #define _FILE_DEFINED
  38:C:/Program Files/mingw-w64/x86_64-8.1.0-win32-seh-rt_v6-rev0/mingw64/x86_64-w64-mingw32/include\stdio.h **** #endif
  39:C:/Program Files/mingw-w64/x86_64-8.1.0-win32-seh-rt_v6-rev0/mingw64/x86_64-w64-mingw32/include\stdio.h **** 
  40:C:/Program Files/mingw-w64/x86_64-8.1.0-win32-seh-rt_v6-rev0/mingw64/x86_64-w64-mingw32/include\stdio.h **** #ifdef _POSIX_
  41:C:/Program Files/mingw-w64/x86_64-8.1.0-win32-seh-rt_v6-rev0/mingw64/x86_64-w64-mingw32/include\stdio.h **** #define _P_tmpdir "/"
  42:C:/Program Files/mingw-w64/x86_64-8.1.0-win32-seh-rt_v6-rev0/mingw64/x86_64-w64-mingw32/include\stdio.h **** #define _wP_tmpdir L"/"
  43:C:/Program Files/mingw-w64/x86_64-8.1.0-win32-seh-rt_v6-rev0/mingw64/x86_64-w64-mingw32/include\stdio.h **** #else
  44:C:/Program Files/mingw-w64/x86_64-8.1.0-win32-seh-rt_v6-rev0/mingw64/x86_64-w64-mingw32/include\stdio.h **** #define _P_tmpdir "\\"
  45:C:/Program Files/mingw-w64/x86_64-8.1.0-win32-seh-rt_v6-rev0/mingw64/x86_64-w64-mingw32/include\stdio.h **** #define _wP_tmpdir L"\\"
  46:C:/Program Files/mingw-w64/x86_64-8.1.0-win32-seh-rt_v6-rev0/mingw64/x86_64-w64-mingw32/include\stdio.h **** #endif
  47:C:/Program Files/mingw-w64/x86_64-8.1.0-win32-seh-rt_v6-rev0/mingw64/x86_64-w64-mingw32/include\stdio.h **** 
  48:C:/Program Files/mingw-w64/x86_64-8.1.0-win32-seh-rt_v6-rev0/mingw64/x86_64-w64-mingw32/include\stdio.h **** #define L_tmpnam (sizeof(_P_tmpdir) + 12)
  49:C:/Program Files/mingw-w64/x86_64-8.1.0-win32-seh-rt_v6-rev0/mingw64/x86_64-w64-mingw32/include\stdio.h **** 
  50:C:/Program Files/mingw-w64/x86_64-8.1.0-win32-seh-rt_v6-rev0/mingw64/x86_64-w64-mingw32/include\stdio.h **** #ifdef _POSIX_
  51:C:/Program Files/mingw-w64/x86_64-8.1.0-win32-seh-rt_v6-rev0/mingw64/x86_64-w64-mingw32/include\stdio.h **** #define L_ctermid 9
  52:C:/Program Files/mingw-w64/x86_64-8.1.0-win32-seh-rt_v6-rev0/mingw64/x86_64-w64-mingw32/include\stdio.h **** #define L_cuserid 32
  53:C:/Program Files/mingw-w64/x86_64-8.1.0-win32-seh-rt_v6-rev0/mingw64/x86_64-w64-mingw32/include\stdio.h **** #endif
  54:C:/Program Files/mingw-w64/x86_64-8.1.0-win32-seh-rt_v6-rev0/mingw64/x86_64-w64-mingw32/include\stdio.h **** 
  55:C:/Program Files/mingw-w64/x86_64-8.1.0-win32-seh-rt_v6-rev0/mingw64/x86_64-w64-mingw32/include\stdio.h **** #define SEEK_CUR 1
  56:C:/Program Files/mingw-w64/x86_64-8.1.0-win32-seh-rt_v6-rev0/mingw64/x86_64-w64-mingw32/include\stdio.h **** #define SEEK_END 2
  57:C:/Program Files/mingw-w64/x86_64-8.1.0-win32-seh-rt_v6-rev0/mingw64/x86_64-w64-mingw32/include\stdio.h **** #define SEEK_SET 0
  58:C:/Program Files/mingw-w64/x86_64-8.1.0-win32-seh-rt_v6-rev0/mingw64/x86_64-w64-mingw32/include\stdio.h **** 
  59:C:/Program Files/mingw-w64/x86_64-8.1.0-win32-seh-rt_v6-rev0/mingw64/x86_64-w64-mingw32/include\stdio.h **** #define	STDIN_FILENO	0
  60:C:/Program Files/mingw-w64/x86_64-8.1.0-win32-seh-rt_v6-rev0/mingw64/x86_64-w64-mingw32/include\stdio.h **** #define	STDOUT_FILENO	1
  61:C:/Program Files/mingw-w64/x86_64-8.1.0-win32-seh-rt_v6-rev0/mingw64/x86_64-w64-mingw32/include\stdio.h **** #define	STDERR_FILENO	2
  62:C:/Program Files/mingw-w64/x86_64-8.1.0-win32-seh-rt_v6-rev0/mingw64/x86_64-w64-mingw32/include\stdio.h **** 
  63:C:/Program Files/mingw-w64/x86_64-8.1.0-win32-seh-rt_v6-rev0/mingw64/x86_64-w64-mingw32/include\stdio.h **** #define FILENAME_MAX 260
  64:C:/Program Files/mingw-w64/x86_64-8.1.0-win32-seh-rt_v6-rev0/mingw64/x86_64-w64-mingw32/include\stdio.h **** #define FOPEN_MAX 20
  65:C:/Program Files/mingw-w64/x86_64-8.1.0-win32-seh-rt_v6-rev0/mingw64/x86_64-w64-mingw32/include\stdio.h **** #define _SYS_OPEN 20
  66:C:/Program Files/mingw-w64/x86_64-8.1.0-win32-seh-rt_v6-rev0/mingw64/x86_64-w64-mingw32/include\stdio.h **** #define TMP_MAX 32767
  67:C:/Program Files/mingw-w64/x86_64-8.1.0-win32-seh-rt_v6-rev0/mingw64/x86_64-w64-mingw32/include\stdio.h **** 
  68:C:/Program Files/mingw-w64/x86_64-8.1.0-win32-seh-rt_v6-rev0/mingw64/x86_64-w64-mingw32/include\stdio.h **** #ifndef NULL
  69:C:/Program Files/mingw-w64/x86_64-8.1.0-win32-seh-rt_v6-rev0/mingw64/x86_64-w64-mingw32/include\stdio.h **** #ifdef __cplusplus
  70:C:/Program Files/mingw-w64/x86_64-8.1.0-win32-seh-rt_v6-rev0/mingw64/x86_64-w64-mingw32/include\stdio.h **** #ifndef _WIN64
  71:C:/Program Files/mingw-w64/x86_64-8.1.0-win32-seh-rt_v6-rev0/mingw64/x86_64-w64-mingw32/include\stdio.h **** #define NULL 0
  72:C:/Program Files/mingw-w64/x86_64-8.1.0-win32-seh-rt_v6-rev0/mingw64/x86_64-w64-mingw32/include\stdio.h **** #else
  73:C:/Program Files/mingw-w64/x86_64-8.1.0-win32-seh-rt_v6-rev0/mingw64/x86_64-w64-mingw32/include\stdio.h **** #define NULL 0LL
  74:C:/Program Files/mingw-w64/x86_64-8.1.0-win32-seh-rt_v6-rev0/mingw64/x86_64-w64-mingw32/include\stdio.h **** #endif  /* W64 */
  75:C:/Program Files/mingw-w64/x86_64-8.1.0-win32-seh-rt_v6-rev0/mingw64/x86_64-w64-mingw32/include\stdio.h **** #else
  76:C:/Program Files/mingw-w64/x86_64-8.1.0-win32-seh-rt_v6-rev0/mingw64/x86_64-w64-mingw32/include\stdio.h **** #define NULL ((void *)0)
  77:C:/Program Files/mingw-w64/x86_64-8.1.0-win32-seh-rt_v6-rev0/mingw64/x86_64-w64-mingw32/include\stdio.h **** #endif
  78:C:/Program Files/mingw-w64/x86_64-8.1.0-win32-seh-rt_v6-rev0/mingw64/x86_64-w64-mingw32/include\stdio.h **** #endif
  79:C:/Program Files/mingw-w64/x86_64-8.1.0-win32-seh-rt_v6-rev0/mingw64/x86_64-w64-mingw32/include\stdio.h **** 
  80:C:/Program Files/mingw-w64/x86_64-8.1.0-win32-seh-rt_v6-rev0/mingw64/x86_64-w64-mingw32/include\stdio.h **** #include <_mingw_off_t.h>
  81:C:/Program Files/mingw-w64/x86_64-8.1.0-win32-seh-rt_v6-rev0/mingw64/x86_64-w64-mingw32/include\stdio.h **** 
  82:C:/Program Files/mingw-w64/x86_64-8.1.0-win32-seh-rt_v6-rev0/mingw64/x86_64-w64-mingw32/include\stdio.h **** _CRTIMP FILE *__cdecl __acrt_iob_func(unsigned index);
  83:C:/Program Files/mingw-w64/x86_64-8.1.0-win32-seh-rt_v6-rev0/mingw64/x86_64-w64-mingw32/include\stdio.h **** #ifndef _STDIO_DEFINED
  84:C:/Program Files/mingw-w64/x86_64-8.1.0-win32-seh-rt_v6-rev0/mingw64/x86_64-w64-mingw32/include\stdio.h **** #ifdef _WIN64
  85:C:/Program Files/mingw-w64/x86_64-8.1.0-win32-seh-rt_v6-rev0/mingw64/x86_64-w64-mingw32/include\stdio.h ****   _CRTIMP FILE *__cdecl __iob_func(void);
  86:C:/Program Files/mingw-w64/x86_64-8.1.0-win32-seh-rt_v6-rev0/mingw64/x86_64-w64-mingw32/include\stdio.h **** #define _iob  __iob_func()
  87:C:/Program Files/mingw-w64/x86_64-8.1.0-win32-seh-rt_v6-rev0/mingw64/x86_64-w64-mingw32/include\stdio.h **** #else
  88:C:/Program Files/mingw-w64/x86_64-8.1.0-win32-seh-rt_v6-rev0/mingw64/x86_64-w64-mingw32/include\stdio.h **** #ifdef _MSVCRT_
  89:C:/Program Files/mingw-w64/x86_64-8.1.0-win32-seh-rt_v6-rev0/mingw64/x86_64-w64-mingw32/include\stdio.h **** extern FILE _iob[];	/* A pointer to an array of FILE */
  90:C:/Program Files/mingw-w64/x86_64-8.1.0-win32-seh-rt_v6-rev0/mingw64/x86_64-w64-mingw32/include\stdio.h **** #define __iob_func()	(_iob)
  91:C:/Program Files/mingw-w64/x86_64-8.1.0-win32-seh-rt_v6-rev0/mingw64/x86_64-w64-mingw32/include\stdio.h **** #else
  92:C:/Program Files/mingw-w64/x86_64-8.1.0-win32-seh-rt_v6-rev0/mingw64/x86_64-w64-mingw32/include\stdio.h **** extern FILE (* __MINGW_IMP_SYMBOL(_iob))[];	/* A pointer to an array of FILE */
  93:C:/Program Files/mingw-w64/x86_64-8.1.0-win32-seh-rt_v6-rev0/mingw64/x86_64-w64-mingw32/include\stdio.h **** #define __iob_func()	(* __MINGW_IMP_SYMBOL(_iob))
  94:C:/Program Files/mingw-w64/x86_64-8.1.0-win32-seh-rt_v6-rev0/mingw64/x86_64-w64-mingw32/include\stdio.h **** #define _iob __iob_func()
  95:C:/Program Files/mingw-w64/x86_64-8.1.0-win32-seh-rt_v6-rev0/mingw64/x86_64-w64-mingw32/include\stdio.h **** #endif
  96:C:/Program Files/mingw-w64/x86_64-8.1.0-win32-seh-rt_v6-rev0/mingw64/x86_64-w64-mingw32/include\stdio.h **** #endif
  97:C:/Program Files/mingw-w64/x86_64-8.1.0-win32-seh-rt_v6-rev0/mingw64/x86_64-w64-mingw32/include\stdio.h **** #endif
  98:C:/Program Files/mingw-w64/x86_64-8.1.0-win32-seh-rt_v6-rev0/mingw64/x86_64-w64-mingw32/include\stdio.h **** 
  99:C:/Program Files/mingw-w64/x86_64-8.1.0-win32-seh-rt_v6-rev0/mingw64/x86_64-w64-mingw32/include\stdio.h **** #ifndef _FPOS_T_DEFINED
 100:C:/Program Files/mingw-w64/x86_64-8.1.0-win32-seh-rt_v6-rev0/mingw64/x86_64-w64-mingw32/include\stdio.h **** #define _FPOS_T_DEFINED
 101:C:/Program Files/mingw-w64/x86_64-8.1.0-win32-seh-rt_v6-rev0/mingw64/x86_64-w64-mingw32/include\stdio.h **** #undef _FPOSOFF
 102:C:/Program Files/mingw-w64/x86_64-8.1.0-win32-seh-rt_v6-rev0/mingw64/x86_64-w64-mingw32/include\stdio.h **** 
 103:C:/Program Files/mingw-w64/x86_64-8.1.0-win32-seh-rt_v6-rev0/mingw64/x86_64-w64-mingw32/include\stdio.h **** #if (!defined(NO_OLDNAMES) || defined(__GNUC__))
 104:C:/Program Files/mingw-w64/x86_64-8.1.0-win32-seh-rt_v6-rev0/mingw64/x86_64-w64-mingw32/include\stdio.h ****   __MINGW_EXTENSION typedef __int64 fpos_t;
 105:C:/Program Files/mingw-w64/x86_64-8.1.0-win32-seh-rt_v6-rev0/mingw64/x86_64-w64-mingw32/include\stdio.h **** #define _FPOSOFF(fp) ((long)(fp))
 106:C:/Program Files/mingw-w64/x86_64-8.1.0-win32-seh-rt_v6-rev0/mingw64/x86_64-w64-mingw32/include\stdio.h **** #else
 107:C:/Program Files/mingw-w64/x86_64-8.1.0-win32-seh-rt_v6-rev0/mingw64/x86_64-w64-mingw32/include\stdio.h ****   __MINGW_EXTENSION typedef long long fpos_t;
 108:C:/Program Files/mingw-w64/x86_64-8.1.0-win32-seh-rt_v6-rev0/mingw64/x86_64-w64-mingw32/include\stdio.h **** #define _FPOSOFF(fp) ((long)(fp))
 109:C:/Program Files/mingw-w64/x86_64-8.1.0-win32-seh-rt_v6-rev0/mingw64/x86_64-w64-mingw32/include\stdio.h **** #endif
 110:C:/Program Files/mingw-w64/x86_64-8.1.0-win32-seh-rt_v6-rev0/mingw64/x86_64-w64-mingw32/include\stdio.h **** 
 111:C:/Program Files/mingw-w64/x86_64-8.1.0-win32-seh-rt_v6-rev0/mingw64/x86_64-w64-mingw32/include\stdio.h **** #endif
 112:C:/Program Files/mingw-w64/x86_64-8.1.0-win32-seh-rt_v6-rev0/mingw64/x86_64-w64-mingw32/include\stdio.h **** 
 113:C:/Program Files/mingw-w64/x86_64-8.1.0-win32-seh-rt_v6-rev0/mingw64/x86_64-w64-mingw32/include\stdio.h **** #ifndef _STDSTREAM_DEFINED
 114:C:/Program Files/mingw-w64/x86_64-8.1.0-win32-seh-rt_v6-rev0/mingw64/x86_64-w64-mingw32/include\stdio.h **** #define _STDSTREAM_DEFINED
 115:C:/Program Files/mingw-w64/x86_64-8.1.0-win32-seh-rt_v6-rev0/mingw64/x86_64-w64-mingw32/include\stdio.h **** 
 116:C:/Program Files/mingw-w64/x86_64-8.1.0-win32-seh-rt_v6-rev0/mingw64/x86_64-w64-mingw32/include\stdio.h **** #define stdin (__acrt_iob_func(0))
 117:C:/Program Files/mingw-w64/x86_64-8.1.0-win32-seh-rt_v6-rev0/mingw64/x86_64-w64-mingw32/include\stdio.h **** #define stdout (__acrt_iob_func(1))
 118:C:/Program Files/mingw-w64/x86_64-8.1.0-win32-seh-rt_v6-rev0/mingw64/x86_64-w64-mingw32/include\stdio.h **** #define stderr (__acrt_iob_func(2))
 119:C:/Program Files/mingw-w64/x86_64-8.1.0-win32-seh-rt_v6-rev0/mingw64/x86_64-w64-mingw32/include\stdio.h **** #endif
 120:C:/Program Files/mingw-w64/x86_64-8.1.0-win32-seh-rt_v6-rev0/mingw64/x86_64-w64-mingw32/include\stdio.h **** 
 121:C:/Program Files/mingw-w64/x86_64-8.1.0-win32-seh-rt_v6-rev0/mingw64/x86_64-w64-mingw32/include\stdio.h **** #define _IOREAD 0x0001
 122:C:/Program Files/mingw-w64/x86_64-8.1.0-win32-seh-rt_v6-rev0/mingw64/x86_64-w64-mingw32/include\stdio.h **** #define _IOWRT 0x0002
 123:C:/Program Files/mingw-w64/x86_64-8.1.0-win32-seh-rt_v6-rev0/mingw64/x86_64-w64-mingw32/include\stdio.h **** 
 124:C:/Program Files/mingw-w64/x86_64-8.1.0-win32-seh-rt_v6-rev0/mingw64/x86_64-w64-mingw32/include\stdio.h **** #define _IOFBF 0x0000
 125:C:/Program Files/mingw-w64/x86_64-8.1.0-win32-seh-rt_v6-rev0/mingw64/x86_64-w64-mingw32/include\stdio.h **** #define _IOLBF 0x0040
 126:C:/Program Files/mingw-w64/x86_64-8.1.0-win32-seh-rt_v6-rev0/mingw64/x86_64-w64-mingw32/include\stdio.h **** #define _IONBF 0x0004
 127:C:/Program Files/mingw-w64/x86_64-8.1.0-win32-seh-rt_v6-rev0/mingw64/x86_64-w64-mingw32/include\stdio.h **** 
 128:C:/Program Files/mingw-w64/x86_64-8.1.0-win32-seh-rt_v6-rev0/mingw64/x86_64-w64-mingw32/include\stdio.h **** #define _IOMYBUF 0x0008
 129:C:/Program Files/mingw-w64/x86_64-8.1.0-win32-seh-rt_v6-rev0/mingw64/x86_64-w64-mingw32/include\stdio.h **** #define _IOEOF 0x0010
 130:C:/Program Files/mingw-w64/x86_64-8.1.0-win32-seh-rt_v6-rev0/mingw64/x86_64-w64-mingw32/include\stdio.h **** #define _IOERR 0x0020
 131:C:/Program Files/mingw-w64/x86_64-8.1.0-win32-seh-rt_v6-rev0/mingw64/x86_64-w64-mingw32/include\stdio.h **** #define _IOSTRG 0x0040
 132:C:/Program Files/mingw-w64/x86_64-8.1.0-win32-seh-rt_v6-rev0/mingw64/x86_64-w64-mingw32/include\stdio.h **** #define _IORW 0x0080
 133:C:/Program Files/mingw-w64/x86_64-8.1.0-win32-seh-rt_v6-rev0/mingw64/x86_64-w64-mingw32/include\stdio.h **** #ifdef _POSIX_
 134:C:/Program Files/mingw-w64/x86_64-8.1.0-win32-seh-rt_v6-rev0/mingw64/x86_64-w64-mingw32/include\stdio.h **** #define _IOAPPEND 0x0200
 135:C:/Program Files/mingw-w64/x86_64-8.1.0-win32-seh-rt_v6-rev0/mingw64/x86_64-w64-mingw32/include\stdio.h **** #endif
 136:C:/Program Files/mingw-w64/x86_64-8.1.0-win32-seh-rt_v6-rev0/mingw64/x86_64-w64-mingw32/include\stdio.h **** 
 137:C:/Program Files/mingw-w64/x86_64-8.1.0-win32-seh-rt_v6-rev0/mingw64/x86_64-w64-mingw32/include\stdio.h **** #define _TWO_DIGIT_EXPONENT 0x1
 138:C:/Program Files/mingw-w64/x86_64-8.1.0-win32-seh-rt_v6-rev0/mingw64/x86_64-w64-mingw32/include\stdio.h **** 
 139:C:/Program Files/mingw-w64/x86_64-8.1.0-win32-seh-rt_v6-rev0/mingw64/x86_64-w64-mingw32/include\stdio.h **** #if !defined(_UCRTBASE_STDIO_DEFINED) && __MSVCRT_VERSION__ >= 0x1400
 140:C:/Program Files/mingw-w64/x86_64-8.1.0-win32-seh-rt_v6-rev0/mingw64/x86_64-w64-mingw32/include\stdio.h **** #define _UCRTBASE_STDIO_DEFINED
 141:C:/Program Files/mingw-w64/x86_64-8.1.0-win32-seh-rt_v6-rev0/mingw64/x86_64-w64-mingw32/include\stdio.h **** 
 142:C:/Program Files/mingw-w64/x86_64-8.1.0-win32-seh-rt_v6-rev0/mingw64/x86_64-w64-mingw32/include\stdio.h **** #define UCRTBASE_PRINTF_LEGACY_VSPRINTF_NULL_TERMINATION (0x0001)
 143:C:/Program Files/mingw-w64/x86_64-8.1.0-win32-seh-rt_v6-rev0/mingw64/x86_64-w64-mingw32/include\stdio.h **** #define UCRTBASE_PRINTF_STANDARD_SNPRINTF_BEHAVIOUR      (0x0002)
 144:C:/Program Files/mingw-w64/x86_64-8.1.0-win32-seh-rt_v6-rev0/mingw64/x86_64-w64-mingw32/include\stdio.h **** #define UCRTBASE_PRINTF_LEGACY_WIDE_SPECIFIERS           (0x0004)
 145:C:/Program Files/mingw-w64/x86_64-8.1.0-win32-seh-rt_v6-rev0/mingw64/x86_64-w64-mingw32/include\stdio.h **** #define UCRTBASE_PRINTF_LEGACY_MSVCRT_COMPATIBILITY      (0x0008)
 146:C:/Program Files/mingw-w64/x86_64-8.1.0-win32-seh-rt_v6-rev0/mingw64/x86_64-w64-mingw32/include\stdio.h **** #define UCRTBASE_PRINTF_LEGACY_THREE_DIGIT_EXPONENTS     (0x0010)
 147:C:/Program Files/mingw-w64/x86_64-8.1.0-win32-seh-rt_v6-rev0/mingw64/x86_64-w64-mingw32/include\stdio.h **** 
 148:C:/Program Files/mingw-w64/x86_64-8.1.0-win32-seh-rt_v6-rev0/mingw64/x86_64-w64-mingw32/include\stdio.h **** #define UCRTBASE_SCANF_SECURECRT                         (0x0001)
 149:C:/Program Files/mingw-w64/x86_64-8.1.0-win32-seh-rt_v6-rev0/mingw64/x86_64-w64-mingw32/include\stdio.h **** #define UCRTBASE_SCANF_LEGACY_WIDE_SPECIFIERS            (0x0002)
 150:C:/Program Files/mingw-w64/x86_64-8.1.0-win32-seh-rt_v6-rev0/mingw64/x86_64-w64-mingw32/include\stdio.h **** #define UCRTBASE_SCANF_LEGACY_MSVCRT_COMPATIBILITY       (0x0004)
 151:C:/Program Files/mingw-w64/x86_64-8.1.0-win32-seh-rt_v6-rev0/mingw64/x86_64-w64-mingw32/include\stdio.h **** 
 152:C:/Program Files/mingw-w64/x86_64-8.1.0-win32-seh-rt_v6-rev0/mingw64/x86_64-w64-mingw32/include\stdio.h **** // Default wide printfs and scanfs to the standard mode
 153:C:/Program Files/mingw-w64/x86_64-8.1.0-win32-seh-rt_v6-rev0/mingw64/x86_64-w64-mingw32/include\stdio.h **** #ifndef UCRTBASE_PRINTF_DEFAULT_WIDE
 154:C:/Program Files/mingw-w64/x86_64-8.1.0-win32-seh-rt_v6-rev0/mingw64/x86_64-w64-mingw32/include\stdio.h **** #define UCRTBASE_PRINTF_DEFAULT_WIDE 0
 155:C:/Program Files/mingw-w64/x86_64-8.1.0-win32-seh-rt_v6-rev0/mingw64/x86_64-w64-mingw32/include\stdio.h **** #endif
 156:C:/Program Files/mingw-w64/x86_64-8.1.0-win32-seh-rt_v6-rev0/mingw64/x86_64-w64-mingw32/include\stdio.h **** #ifndef UCRTBASE_SCANF_DEFAULT_WIDE
 157:C:/Program Files/mingw-w64/x86_64-8.1.0-win32-seh-rt_v6-rev0/mingw64/x86_64-w64-mingw32/include\stdio.h **** #define UCRTBASE_SCANF_DEFAULT_WIDE 0
 158:C:/Program Files/mingw-w64/x86_64-8.1.0-win32-seh-rt_v6-rev0/mingw64/x86_64-w64-mingw32/include\stdio.h **** #endif
 159:C:/Program Files/mingw-w64/x86_64-8.1.0-win32-seh-rt_v6-rev0/mingw64/x86_64-w64-mingw32/include\stdio.h **** #endif
 160:C:/Program Files/mingw-w64/x86_64-8.1.0-win32-seh-rt_v6-rev0/mingw64/x86_64-w64-mingw32/include\stdio.h **** 
 161:C:/Program Files/mingw-w64/x86_64-8.1.0-win32-seh-rt_v6-rev0/mingw64/x86_64-w64-mingw32/include\stdio.h **** #ifndef _STDIO_DEFINED
 162:C:/Program Files/mingw-w64/x86_64-8.1.0-win32-seh-rt_v6-rev0/mingw64/x86_64-w64-mingw32/include\stdio.h **** extern
 163:C:/Program Files/mingw-w64/x86_64-8.1.0-win32-seh-rt_v6-rev0/mingw64/x86_64-w64-mingw32/include\stdio.h ****   __attribute__((__format__ (gnu_scanf, 2, 3))) __MINGW_ATTRIB_NONNULL(2)
 164:C:/Program Files/mingw-w64/x86_64-8.1.0-win32-seh-rt_v6-rev0/mingw64/x86_64-w64-mingw32/include\stdio.h ****   int __cdecl __mingw_sscanf(const char * __restrict__ _Src,const char * __restrict__ _Format,...);
 165:C:/Program Files/mingw-w64/x86_64-8.1.0-win32-seh-rt_v6-rev0/mingw64/x86_64-w64-mingw32/include\stdio.h **** extern
 166:C:/Program Files/mingw-w64/x86_64-8.1.0-win32-seh-rt_v6-rev0/mingw64/x86_64-w64-mingw32/include\stdio.h ****   __attribute__((__format__ (gnu_scanf, 2, 0))) __MINGW_ATTRIB_NONNULL(2)
 167:C:/Program Files/mingw-w64/x86_64-8.1.0-win32-seh-rt_v6-rev0/mingw64/x86_64-w64-mingw32/include\stdio.h ****   int __cdecl __mingw_vsscanf (const char * __restrict__ _Str,const char * __restrict__ Format,va_l
 168:C:/Program Files/mingw-w64/x86_64-8.1.0-win32-seh-rt_v6-rev0/mingw64/x86_64-w64-mingw32/include\stdio.h **** extern
 169:C:/Program Files/mingw-w64/x86_64-8.1.0-win32-seh-rt_v6-rev0/mingw64/x86_64-w64-mingw32/include\stdio.h ****   __attribute__((__format__ (gnu_scanf, 1, 2))) __MINGW_ATTRIB_NONNULL(1)
 170:C:/Program Files/mingw-w64/x86_64-8.1.0-win32-seh-rt_v6-rev0/mingw64/x86_64-w64-mingw32/include\stdio.h ****   int __cdecl __mingw_scanf(const char * __restrict__ _Format,...);
 171:C:/Program Files/mingw-w64/x86_64-8.1.0-win32-seh-rt_v6-rev0/mingw64/x86_64-w64-mingw32/include\stdio.h **** extern
 172:C:/Program Files/mingw-w64/x86_64-8.1.0-win32-seh-rt_v6-rev0/mingw64/x86_64-w64-mingw32/include\stdio.h ****   __attribute__((__format__ (gnu_scanf, 1, 0))) __MINGW_ATTRIB_NONNULL(1)
 173:C:/Program Files/mingw-w64/x86_64-8.1.0-win32-seh-rt_v6-rev0/mingw64/x86_64-w64-mingw32/include\stdio.h ****   int __cdecl __mingw_vscanf(const char * __restrict__ Format, va_list argp);
 174:C:/Program Files/mingw-w64/x86_64-8.1.0-win32-seh-rt_v6-rev0/mingw64/x86_64-w64-mingw32/include\stdio.h **** extern
 175:C:/Program Files/mingw-w64/x86_64-8.1.0-win32-seh-rt_v6-rev0/mingw64/x86_64-w64-mingw32/include\stdio.h ****   __attribute__((__format__ (gnu_scanf, 2, 3))) __MINGW_ATTRIB_NONNULL(2)
 176:C:/Program Files/mingw-w64/x86_64-8.1.0-win32-seh-rt_v6-rev0/mingw64/x86_64-w64-mingw32/include\stdio.h ****   int __cdecl __mingw_fscanf(FILE * __restrict__ _File,const char * __restrict__ _Format,...);
 177:C:/Program Files/mingw-w64/x86_64-8.1.0-win32-seh-rt_v6-rev0/mingw64/x86_64-w64-mingw32/include\stdio.h **** extern
 178:C:/Program Files/mingw-w64/x86_64-8.1.0-win32-seh-rt_v6-rev0/mingw64/x86_64-w64-mingw32/include\stdio.h ****   __attribute__((__format__ (gnu_scanf, 2, 0))) __MINGW_ATTRIB_NONNULL(2)
 179:C:/Program Files/mingw-w64/x86_64-8.1.0-win32-seh-rt_v6-rev0/mingw64/x86_64-w64-mingw32/include\stdio.h ****   int __cdecl __mingw_vfscanf (FILE * __restrict__ fp, const char * __restrict__ Format,va_list arg
 180:C:/Program Files/mingw-w64/x86_64-8.1.0-win32-seh-rt_v6-rev0/mingw64/x86_64-w64-mingw32/include\stdio.h **** 
 181:C:/Program Files/mingw-w64/x86_64-8.1.0-win32-seh-rt_v6-rev0/mingw64/x86_64-w64-mingw32/include\stdio.h **** extern
 182:C:/Program Files/mingw-w64/x86_64-8.1.0-win32-seh-rt_v6-rev0/mingw64/x86_64-w64-mingw32/include\stdio.h ****   __attribute__((__format__ (gnu_printf, 3, 0))) __MINGW_ATTRIB_NONNULL(3)
 183:C:/Program Files/mingw-w64/x86_64-8.1.0-win32-seh-rt_v6-rev0/mingw64/x86_64-w64-mingw32/include\stdio.h ****   int __cdecl __mingw_vsnprintf(char * __restrict__ _DstBuf,size_t _MaxCount,const char * __restric
 184:C:/Program Files/mingw-w64/x86_64-8.1.0-win32-seh-rt_v6-rev0/mingw64/x86_64-w64-mingw32/include\stdio.h ****                                va_list _ArgList);
 185:C:/Program Files/mingw-w64/x86_64-8.1.0-win32-seh-rt_v6-rev0/mingw64/x86_64-w64-mingw32/include\stdio.h **** extern
 186:C:/Program Files/mingw-w64/x86_64-8.1.0-win32-seh-rt_v6-rev0/mingw64/x86_64-w64-mingw32/include\stdio.h ****   __attribute__((__format__ (gnu_printf, 3, 4))) __MINGW_ATTRIB_NONNULL(3)
 187:C:/Program Files/mingw-w64/x86_64-8.1.0-win32-seh-rt_v6-rev0/mingw64/x86_64-w64-mingw32/include\stdio.h ****   int __cdecl __mingw_snprintf(char * __restrict__ s, size_t n, const char * __restrict__  format, 
 188:C:/Program Files/mingw-w64/x86_64-8.1.0-win32-seh-rt_v6-rev0/mingw64/x86_64-w64-mingw32/include\stdio.h **** extern
 189:C:/Program Files/mingw-w64/x86_64-8.1.0-win32-seh-rt_v6-rev0/mingw64/x86_64-w64-mingw32/include\stdio.h ****   __attribute__((__format__ (gnu_printf, 1, 2))) __MINGW_ATTRIB_NONNULL(1)
 190:C:/Program Files/mingw-w64/x86_64-8.1.0-win32-seh-rt_v6-rev0/mingw64/x86_64-w64-mingw32/include\stdio.h ****   int __cdecl __mingw_printf(const char * __restrict__ , ... ) __MINGW_NOTHROW;
 191:C:/Program Files/mingw-w64/x86_64-8.1.0-win32-seh-rt_v6-rev0/mingw64/x86_64-w64-mingw32/include\stdio.h **** extern
 192:C:/Program Files/mingw-w64/x86_64-8.1.0-win32-seh-rt_v6-rev0/mingw64/x86_64-w64-mingw32/include\stdio.h ****   __attribute__((__format__ (gnu_printf, 1, 0))) __MINGW_ATTRIB_NONNULL(1)
 193:C:/Program Files/mingw-w64/x86_64-8.1.0-win32-seh-rt_v6-rev0/mingw64/x86_64-w64-mingw32/include\stdio.h ****   int __cdecl __mingw_vprintf (const char * __restrict__ , va_list) __MINGW_NOTHROW;
 194:C:/Program Files/mingw-w64/x86_64-8.1.0-win32-seh-rt_v6-rev0/mingw64/x86_64-w64-mingw32/include\stdio.h **** extern
 195:C:/Program Files/mingw-w64/x86_64-8.1.0-win32-seh-rt_v6-rev0/mingw64/x86_64-w64-mingw32/include\stdio.h ****   __attribute__((__format__ (gnu_printf, 2, 3))) __MINGW_ATTRIB_NONNULL(2)
 196:C:/Program Files/mingw-w64/x86_64-8.1.0-win32-seh-rt_v6-rev0/mingw64/x86_64-w64-mingw32/include\stdio.h ****   int __cdecl __mingw_fprintf (FILE * __restrict__ , const char * __restrict__ , ...) __MINGW_NOTHR
 197:C:/Program Files/mingw-w64/x86_64-8.1.0-win32-seh-rt_v6-rev0/mingw64/x86_64-w64-mingw32/include\stdio.h **** extern
 198:C:/Program Files/mingw-w64/x86_64-8.1.0-win32-seh-rt_v6-rev0/mingw64/x86_64-w64-mingw32/include\stdio.h ****   __attribute__((__format__ (gnu_printf, 2, 0))) __MINGW_ATTRIB_NONNULL(2)
 199:C:/Program Files/mingw-w64/x86_64-8.1.0-win32-seh-rt_v6-rev0/mingw64/x86_64-w64-mingw32/include\stdio.h ****   int __cdecl __mingw_vfprintf (FILE * __restrict__ , const char * __restrict__ , va_list) __MINGW_
 200:C:/Program Files/mingw-w64/x86_64-8.1.0-win32-seh-rt_v6-rev0/mingw64/x86_64-w64-mingw32/include\stdio.h **** extern
 201:C:/Program Files/mingw-w64/x86_64-8.1.0-win32-seh-rt_v6-rev0/mingw64/x86_64-w64-mingw32/include\stdio.h ****   __attribute__((__format__ (gnu_printf, 2, 3))) __MINGW_ATTRIB_NONNULL(2)
 202:C:/Program Files/mingw-w64/x86_64-8.1.0-win32-seh-rt_v6-rev0/mingw64/x86_64-w64-mingw32/include\stdio.h ****   int __cdecl __mingw_sprintf (char * __restrict__ , const char * __restrict__ , ...) __MINGW_NOTHR
 203:C:/Program Files/mingw-w64/x86_64-8.1.0-win32-seh-rt_v6-rev0/mingw64/x86_64-w64-mingw32/include\stdio.h **** extern
 204:C:/Program Files/mingw-w64/x86_64-8.1.0-win32-seh-rt_v6-rev0/mingw64/x86_64-w64-mingw32/include\stdio.h ****   __attribute__((__format__ (gnu_printf, 2, 0))) __MINGW_ATTRIB_NONNULL(2)
 205:C:/Program Files/mingw-w64/x86_64-8.1.0-win32-seh-rt_v6-rev0/mingw64/x86_64-w64-mingw32/include\stdio.h ****   int __cdecl __mingw_vsprintf (char * __restrict__ , const char * __restrict__ , va_list) __MINGW_
 206:C:/Program Files/mingw-w64/x86_64-8.1.0-win32-seh-rt_v6-rev0/mingw64/x86_64-w64-mingw32/include\stdio.h **** extern
 207:C:/Program Files/mingw-w64/x86_64-8.1.0-win32-seh-rt_v6-rev0/mingw64/x86_64-w64-mingw32/include\stdio.h ****   __attribute__((__format__ (gnu_printf, 2, 3))) __attribute__((nonnull (1,2)))
 208:C:/Program Files/mingw-w64/x86_64-8.1.0-win32-seh-rt_v6-rev0/mingw64/x86_64-w64-mingw32/include\stdio.h ****   int __cdecl __mingw_asprintf(char ** __restrict__ , const char * __restrict__ , ...) __MINGW_NOTH
 209:C:/Program Files/mingw-w64/x86_64-8.1.0-win32-seh-rt_v6-rev0/mingw64/x86_64-w64-mingw32/include\stdio.h **** extern
 210:C:/Program Files/mingw-w64/x86_64-8.1.0-win32-seh-rt_v6-rev0/mingw64/x86_64-w64-mingw32/include\stdio.h ****   __attribute__((__format__ (gnu_printf, 2, 0))) __attribute__((nonnull (1,2)))
 211:C:/Program Files/mingw-w64/x86_64-8.1.0-win32-seh-rt_v6-rev0/mingw64/x86_64-w64-mingw32/include\stdio.h ****   int __cdecl __mingw_vasprintf(char ** __restrict__ , const char * __restrict__ , va_list) __MINGW
 212:C:/Program Files/mingw-w64/x86_64-8.1.0-win32-seh-rt_v6-rev0/mingw64/x86_64-w64-mingw32/include\stdio.h **** 
 213:C:/Program Files/mingw-w64/x86_64-8.1.0-win32-seh-rt_v6-rev0/mingw64/x86_64-w64-mingw32/include\stdio.h **** #if __MSVCRT_VERSION__ >= 0x1400
 214:C:/Program Files/mingw-w64/x86_64-8.1.0-win32-seh-rt_v6-rev0/mingw64/x86_64-w64-mingw32/include\stdio.h ****   int __cdecl __stdio_common_vsprintf(unsigned __int64 options, char *str, size_t len, const char *
 215:C:/Program Files/mingw-w64/x86_64-8.1.0-win32-seh-rt_v6-rev0/mingw64/x86_64-w64-mingw32/include\stdio.h ****   int __cdecl __stdio_common_vfprintf(unsigned __int64 options, FILE *file, const char *format, _lo
 216:C:/Program Files/mingw-w64/x86_64-8.1.0-win32-seh-rt_v6-rev0/mingw64/x86_64-w64-mingw32/include\stdio.h ****   int __cdecl __stdio_common_vsscanf(unsigned __int64 options, const char *input, size_t length, co
 217:C:/Program Files/mingw-w64/x86_64-8.1.0-win32-seh-rt_v6-rev0/mingw64/x86_64-w64-mingw32/include\stdio.h ****   int __cdecl __stdio_common_vfscanf(unsigned __int64 options, FILE *file, const char *format, _loc
 218:C:/Program Files/mingw-w64/x86_64-8.1.0-win32-seh-rt_v6-rev0/mingw64/x86_64-w64-mingw32/include\stdio.h **** #endif
 219:C:/Program Files/mingw-w64/x86_64-8.1.0-win32-seh-rt_v6-rev0/mingw64/x86_64-w64-mingw32/include\stdio.h **** 
 220:C:/Program Files/mingw-w64/x86_64-8.1.0-win32-seh-rt_v6-rev0/mingw64/x86_64-w64-mingw32/include\stdio.h **** #undef __MINGW_PRINTF_FORMAT
 221:C:/Program Files/mingw-w64/x86_64-8.1.0-win32-seh-rt_v6-rev0/mingw64/x86_64-w64-mingw32/include\stdio.h **** #undef __MINGW_SCANF_FORMAT
 222:C:/Program Files/mingw-w64/x86_64-8.1.0-win32-seh-rt_v6-rev0/mingw64/x86_64-w64-mingw32/include\stdio.h **** 
 223:C:/Program Files/mingw-w64/x86_64-8.1.0-win32-seh-rt_v6-rev0/mingw64/x86_64-w64-mingw32/include\stdio.h **** #if defined(__clang__)
 224:C:/Program Files/mingw-w64/x86_64-8.1.0-win32-seh-rt_v6-rev0/mingw64/x86_64-w64-mingw32/include\stdio.h **** #define __MINGW_PRINTF_FORMAT printf
 225:C:/Program Files/mingw-w64/x86_64-8.1.0-win32-seh-rt_v6-rev0/mingw64/x86_64-w64-mingw32/include\stdio.h **** #define __MINGW_SCANF_FORMAT  scanf
 226:C:/Program Files/mingw-w64/x86_64-8.1.0-win32-seh-rt_v6-rev0/mingw64/x86_64-w64-mingw32/include\stdio.h **** #elif defined(__USE_MINGW_ANSI_STDIO)
 227:C:/Program Files/mingw-w64/x86_64-8.1.0-win32-seh-rt_v6-rev0/mingw64/x86_64-w64-mingw32/include\stdio.h **** #define __MINGW_PRINTF_FORMAT gnu_printf
 228:C:/Program Files/mingw-w64/x86_64-8.1.0-win32-seh-rt_v6-rev0/mingw64/x86_64-w64-mingw32/include\stdio.h **** #define __MINGW_SCANF_FORMAT  gnu_scanf
 229:C:/Program Files/mingw-w64/x86_64-8.1.0-win32-seh-rt_v6-rev0/mingw64/x86_64-w64-mingw32/include\stdio.h **** #else
 230:C:/Program Files/mingw-w64/x86_64-8.1.0-win32-seh-rt_v6-rev0/mingw64/x86_64-w64-mingw32/include\stdio.h **** #define __MINGW_PRINTF_FORMAT ms_printf
 231:C:/Program Files/mingw-w64/x86_64-8.1.0-win32-seh-rt_v6-rev0/mingw64/x86_64-w64-mingw32/include\stdio.h **** #define __MINGW_SCANF_FORMAT  ms_scanf
 232:C:/Program Files/mingw-w64/x86_64-8.1.0-win32-seh-rt_v6-rev0/mingw64/x86_64-w64-mingw32/include\stdio.h **** #endif
 233:C:/Program Files/mingw-w64/x86_64-8.1.0-win32-seh-rt_v6-rev0/mingw64/x86_64-w64-mingw32/include\stdio.h **** 
 234:C:/Program Files/mingw-w64/x86_64-8.1.0-win32-seh-rt_v6-rev0/mingw64/x86_64-w64-mingw32/include\stdio.h **** #if __USE_MINGW_ANSI_STDIO
 235:C:/Program Files/mingw-w64/x86_64-8.1.0-win32-seh-rt_v6-rev0/mingw64/x86_64-w64-mingw32/include\stdio.h **** /*
 236:C:/Program Files/mingw-w64/x86_64-8.1.0-win32-seh-rt_v6-rev0/mingw64/x86_64-w64-mingw32/include\stdio.h ****  * User has expressed a preference for C99 conformance...
 237:C:/Program Files/mingw-w64/x86_64-8.1.0-win32-seh-rt_v6-rev0/mingw64/x86_64-w64-mingw32/include\stdio.h ****  */
 238:C:/Program Files/mingw-w64/x86_64-8.1.0-win32-seh-rt_v6-rev0/mingw64/x86_64-w64-mingw32/include\stdio.h **** 
 239:C:/Program Files/mingw-w64/x86_64-8.1.0-win32-seh-rt_v6-rev0/mingw64/x86_64-w64-mingw32/include\stdio.h **** #ifdef _GNU_SOURCE
 240:C:/Program Files/mingw-w64/x86_64-8.1.0-win32-seh-rt_v6-rev0/mingw64/x86_64-w64-mingw32/include\stdio.h **** __mingw_ovr
 241:C:/Program Files/mingw-w64/x86_64-8.1.0-win32-seh-rt_v6-rev0/mingw64/x86_64-w64-mingw32/include\stdio.h **** __attribute__ ((__format__ (gnu_printf, 2, 3))) __attribute__((nonnull (1,2)))
 242:C:/Program Files/mingw-w64/x86_64-8.1.0-win32-seh-rt_v6-rev0/mingw64/x86_64-w64-mingw32/include\stdio.h **** int asprintf(char **__ret, const char *__format, ...)
 243:C:/Program Files/mingw-w64/x86_64-8.1.0-win32-seh-rt_v6-rev0/mingw64/x86_64-w64-mingw32/include\stdio.h **** {
 244:C:/Program Files/mingw-w64/x86_64-8.1.0-win32-seh-rt_v6-rev0/mingw64/x86_64-w64-mingw32/include\stdio.h ****   int __retval;
 245:C:/Program Files/mingw-w64/x86_64-8.1.0-win32-seh-rt_v6-rev0/mingw64/x86_64-w64-mingw32/include\stdio.h ****   __builtin_va_list __local_argv; __builtin_va_start( __local_argv, __format );
 246:C:/Program Files/mingw-w64/x86_64-8.1.0-win32-seh-rt_v6-rev0/mingw64/x86_64-w64-mingw32/include\stdio.h ****   __retval = __mingw_vasprintf( __ret, __format, __local_argv );
 247:C:/Program Files/mingw-w64/x86_64-8.1.0-win32-seh-rt_v6-rev0/mingw64/x86_64-w64-mingw32/include\stdio.h ****   __builtin_va_end( __local_argv );
 248:C:/Program Files/mingw-w64/x86_64-8.1.0-win32-seh-rt_v6-rev0/mingw64/x86_64-w64-mingw32/include\stdio.h ****   return __retval;
 249:C:/Program Files/mingw-w64/x86_64-8.1.0-win32-seh-rt_v6-rev0/mingw64/x86_64-w64-mingw32/include\stdio.h **** }
 250:C:/Program Files/mingw-w64/x86_64-8.1.0-win32-seh-rt_v6-rev0/mingw64/x86_64-w64-mingw32/include\stdio.h **** 
 251:C:/Program Files/mingw-w64/x86_64-8.1.0-win32-seh-rt_v6-rev0/mingw64/x86_64-w64-mingw32/include\stdio.h **** __mingw_ovr
 252:C:/Program Files/mingw-w64/x86_64-8.1.0-win32-seh-rt_v6-rev0/mingw64/x86_64-w64-mingw32/include\stdio.h **** __attribute__ ((__format__ (gnu_printf, 2, 0))) __attribute__((nonnull (1,2)))
 253:C:/Program Files/mingw-w64/x86_64-8.1.0-win32-seh-rt_v6-rev0/mingw64/x86_64-w64-mingw32/include\stdio.h **** int vasprintf(char **__ret, const char *__format, __builtin_va_list __local_argv)
 254:C:/Program Files/mingw-w64/x86_64-8.1.0-win32-seh-rt_v6-rev0/mingw64/x86_64-w64-mingw32/include\stdio.h **** {
 255:C:/Program Files/mingw-w64/x86_64-8.1.0-win32-seh-rt_v6-rev0/mingw64/x86_64-w64-mingw32/include\stdio.h ****   return __mingw_vasprintf( __ret, __format, __local_argv );
 256:C:/Program Files/mingw-w64/x86_64-8.1.0-win32-seh-rt_v6-rev0/mingw64/x86_64-w64-mingw32/include\stdio.h **** }
 257:C:/Program Files/mingw-w64/x86_64-8.1.0-win32-seh-rt_v6-rev0/mingw64/x86_64-w64-mingw32/include\stdio.h **** #endif /* _GNU_SOURCE */
 258:C:/Program Files/mingw-w64/x86_64-8.1.0-win32-seh-rt_v6-rev0/mingw64/x86_64-w64-mingw32/include\stdio.h **** 
 259:C:/Program Files/mingw-w64/x86_64-8.1.0-win32-seh-rt_v6-rev0/mingw64/x86_64-w64-mingw32/include\stdio.h **** /* There seems to be a bug about builtins and static overrides of them
 260:C:/Program Files/mingw-w64/x86_64-8.1.0-win32-seh-rt_v6-rev0/mingw64/x86_64-w64-mingw32/include\stdio.h ****    in g++.  So we need to do here some trickery.  */
 261:C:/Program Files/mingw-w64/x86_64-8.1.0-win32-seh-rt_v6-rev0/mingw64/x86_64-w64-mingw32/include\stdio.h **** #ifdef __cplusplus
 262:C:/Program Files/mingw-w64/x86_64-8.1.0-win32-seh-rt_v6-rev0/mingw64/x86_64-w64-mingw32/include\stdio.h **** extern "C++" {
 263:C:/Program Files/mingw-w64/x86_64-8.1.0-win32-seh-rt_v6-rev0/mingw64/x86_64-w64-mingw32/include\stdio.h **** #endif
 264:C:/Program Files/mingw-w64/x86_64-8.1.0-win32-seh-rt_v6-rev0/mingw64/x86_64-w64-mingw32/include\stdio.h **** 
 265:C:/Program Files/mingw-w64/x86_64-8.1.0-win32-seh-rt_v6-rev0/mingw64/x86_64-w64-mingw32/include\stdio.h **** __mingw_ovr
 266:C:/Program Files/mingw-w64/x86_64-8.1.0-win32-seh-rt_v6-rev0/mingw64/x86_64-w64-mingw32/include\stdio.h **** __attribute__((__format__ (gnu_scanf, 2, 3))) __MINGW_ATTRIB_NONNULL(2)
 267:C:/Program Files/mingw-w64/x86_64-8.1.0-win32-seh-rt_v6-rev0/mingw64/x86_64-w64-mingw32/include\stdio.h **** int sscanf(const char *__source, const char *__format, ...)
 268:C:/Program Files/mingw-w64/x86_64-8.1.0-win32-seh-rt_v6-rev0/mingw64/x86_64-w64-mingw32/include\stdio.h **** {
 269:C:/Program Files/mingw-w64/x86_64-8.1.0-win32-seh-rt_v6-rev0/mingw64/x86_64-w64-mingw32/include\stdio.h ****   int __retval;
 270:C:/Program Files/mingw-w64/x86_64-8.1.0-win32-seh-rt_v6-rev0/mingw64/x86_64-w64-mingw32/include\stdio.h ****   __builtin_va_list __local_argv; __builtin_va_start( __local_argv, __format );
 271:C:/Program Files/mingw-w64/x86_64-8.1.0-win32-seh-rt_v6-rev0/mingw64/x86_64-w64-mingw32/include\stdio.h ****   __retval = __mingw_vsscanf( __source, __format, __local_argv );
 272:C:/Program Files/mingw-w64/x86_64-8.1.0-win32-seh-rt_v6-rev0/mingw64/x86_64-w64-mingw32/include\stdio.h ****   __builtin_va_end( __local_argv );
 273:C:/Program Files/mingw-w64/x86_64-8.1.0-win32-seh-rt_v6-rev0/mingw64/x86_64-w64-mingw32/include\stdio.h ****   return __retval;
 274:C:/Program Files/mingw-w64/x86_64-8.1.0-win32-seh-rt_v6-rev0/mingw64/x86_64-w64-mingw32/include\stdio.h **** }
 275:C:/Program Files/mingw-w64/x86_64-8.1.0-win32-seh-rt_v6-rev0/mingw64/x86_64-w64-mingw32/include\stdio.h **** 
 276:C:/Program Files/mingw-w64/x86_64-8.1.0-win32-seh-rt_v6-rev0/mingw64/x86_64-w64-mingw32/include\stdio.h **** __mingw_ovr
 277:C:/Program Files/mingw-w64/x86_64-8.1.0-win32-seh-rt_v6-rev0/mingw64/x86_64-w64-mingw32/include\stdio.h **** __attribute__((__format__ (gnu_scanf, 1, 2))) __MINGW_ATTRIB_NONNULL(1)
 278:C:/Program Files/mingw-w64/x86_64-8.1.0-win32-seh-rt_v6-rev0/mingw64/x86_64-w64-mingw32/include\stdio.h **** int scanf(const char *__format, ...)
 279:C:/Program Files/mingw-w64/x86_64-8.1.0-win32-seh-rt_v6-rev0/mingw64/x86_64-w64-mingw32/include\stdio.h **** {
  13              		.loc 1 279 1
  14              		.cfi_startproc
  15 0000 55       		pushq	%rbp
  16              		.seh_pushreg	%rbp
  17              		.cfi_def_cfa_offset 16
  18              		.cfi_offset 6, -16
  19 0001 53       		pushq	%rbx
  20              		.seh_pushreg	%rbx
  21              		.cfi_def_cfa_offset 24
  22              		.cfi_offset 3, -24
  23 0002 4883EC38 		subq	$56, %rsp
  24              		.seh_stackalloc	56
  25              		.cfi_def_cfa_offset 80
  26 0006 488DAC24 		leaq	128(%rsp), %rbp
  26      80000000 
  27              		.seh_setframe	%rbp, 128
  28              		.cfi_def_cfa 6, -48
  29              		.seh_endprologue
  30 000e 48894DD0 		movq	%rcx, -48(%rbp)
  31 0012 488955D8 		movq	%rdx, -40(%rbp)
  32 0016 4C8945E0 		movq	%r8, -32(%rbp)
  33 001a 4C894DE8 		movq	%r9, -24(%rbp)
 280:C:/Program Files/mingw-w64/x86_64-8.1.0-win32-seh-rt_v6-rev0/mingw64/x86_64-w64-mingw32/include\stdio.h ****   int __retval;
 281:C:/Program Files/mingw-w64/x86_64-8.1.0-win32-seh-rt_v6-rev0/mingw64/x86_64-w64-mingw32/include\stdio.h ****   __builtin_va_list __local_argv; __builtin_va_start( __local_argv, __format );
  34              		.loc 1 281 53
  35 001e 488D45D8 		leaq	-40(%rbp), %rax
  36 0022 488945A0 		movq	%rax, -96(%rbp)
 282:C:/Program Files/mingw-w64/x86_64-8.1.0-win32-seh-rt_v6-rev0/mingw64/x86_64-w64-mingw32/include\stdio.h ****   __retval = __mingw_vfscanf( stdin, __format, __local_argv );
  37              		.loc 1 282 29
  38 0026 488B5DA0 		movq	-96(%rbp), %rbx
  39 002a B9000000 		movl	$0, %ecx
  39      00
  40 002f 488B0500 		movq	__imp___acrt_iob_func(%rip), %rax
  40      000000
  41 0036 FFD0     		call	*%rax
  42              	.LVL0:
  43 0038 4989D8   		movq	%rbx, %r8
  44 003b 488B55D0 		movq	-48(%rbp), %rdx
  45 003f 4889C1   		movq	%rax, %rcx
  46 0042 E8000000 		call	__mingw_vfscanf
  46      00
  47 0047 8945AC   		movl	%eax, -84(%rbp)
 283:C:/Program Files/mingw-w64/x86_64-8.1.0-win32-seh-rt_v6-rev0/mingw64/x86_64-w64-mingw32/include\stdio.h ****   __builtin_va_end( __local_argv );
 284:C:/Program Files/mingw-w64/x86_64-8.1.0-win32-seh-rt_v6-rev0/mingw64/x86_64-w64-mingw32/include\stdio.h ****   return __retval;
  48              		.loc 1 284 10
  49 004a 8B45AC   		movl	-84(%rbp), %eax
 285:C:/Program Files/mingw-w64/x86_64-8.1.0-win32-seh-rt_v6-rev0/mingw64/x86_64-w64-mingw32/include\stdio.h **** }
  50              		.loc 1 285 1
  51 004d 4883C438 		addq	$56, %rsp
  52 0051 5B       		popq	%rbx
  53              		.cfi_restore 3
  54 0052 5D       		popq	%rbp
  55              		.cfi_restore 6
  56              		.cfi_def_cfa 7, -40
  57 0053 C3       		ret
  58              		.cfi_endproc
  59              	.LFE476:
  60              		.seh_endproc
  61 0054 90909090 		.section	.text$_Z6printfPKcz,"x"
  61      90909090 
  61      90909090 
  62              		.linkonce discard
  63              		.globl	_Z6printfPKcz
  65              		.seh_proc	_Z6printfPKcz
  66              	_Z6printfPKcz:
  67              	.LFB482:
 286:C:/Program Files/mingw-w64/x86_64-8.1.0-win32-seh-rt_v6-rev0/mingw64/x86_64-w64-mingw32/include\stdio.h **** 
 287:C:/Program Files/mingw-w64/x86_64-8.1.0-win32-seh-rt_v6-rev0/mingw64/x86_64-w64-mingw32/include\stdio.h **** __mingw_ovr
 288:C:/Program Files/mingw-w64/x86_64-8.1.0-win32-seh-rt_v6-rev0/mingw64/x86_64-w64-mingw32/include\stdio.h **** __attribute__((__format__ (gnu_scanf, 2, 3))) __MINGW_ATTRIB_NONNULL(2)
 289:C:/Program Files/mingw-w64/x86_64-8.1.0-win32-seh-rt_v6-rev0/mingw64/x86_64-w64-mingw32/include\stdio.h **** int fscanf(FILE *__stream, const char *__format, ...)
 290:C:/Program Files/mingw-w64/x86_64-8.1.0-win32-seh-rt_v6-rev0/mingw64/x86_64-w64-mingw32/include\stdio.h **** {
 291:C:/Program Files/mingw-w64/x86_64-8.1.0-win32-seh-rt_v6-rev0/mingw64/x86_64-w64-mingw32/include\stdio.h ****   int __retval;
 292:C:/Program Files/mingw-w64/x86_64-8.1.0-win32-seh-rt_v6-rev0/mingw64/x86_64-w64-mingw32/include\stdio.h ****   __builtin_va_list __local_argv; __builtin_va_start( __local_argv, __format );
 293:C:/Program Files/mingw-w64/x86_64-8.1.0-win32-seh-rt_v6-rev0/mingw64/x86_64-w64-mingw32/include\stdio.h ****   __retval = __mingw_vfscanf( __stream, __format, __local_argv );
 294:C:/Program Files/mingw-w64/x86_64-8.1.0-win32-seh-rt_v6-rev0/mingw64/x86_64-w64-mingw32/include\stdio.h ****   __builtin_va_end( __local_argv );
 295:C:/Program Files/mingw-w64/x86_64-8.1.0-win32-seh-rt_v6-rev0/mingw64/x86_64-w64-mingw32/include\stdio.h ****   return __retval;
 296:C:/Program Files/mingw-w64/x86_64-8.1.0-win32-seh-rt_v6-rev0/mingw64/x86_64-w64-mingw32/include\stdio.h **** }
 297:C:/Program Files/mingw-w64/x86_64-8.1.0-win32-seh-rt_v6-rev0/mingw64/x86_64-w64-mingw32/include\stdio.h **** 
 298:C:/Program Files/mingw-w64/x86_64-8.1.0-win32-seh-rt_v6-rev0/mingw64/x86_64-w64-mingw32/include\stdio.h **** #ifndef __NO_ISOCEXT  /* externs in libmingwex.a */
 299:C:/Program Files/mingw-w64/x86_64-8.1.0-win32-seh-rt_v6-rev0/mingw64/x86_64-w64-mingw32/include\stdio.h **** #ifdef __GNUC__
 300:C:/Program Files/mingw-w64/x86_64-8.1.0-win32-seh-rt_v6-rev0/mingw64/x86_64-w64-mingw32/include\stdio.h **** #pragma GCC diagnostic push
 301:C:/Program Files/mingw-w64/x86_64-8.1.0-win32-seh-rt_v6-rev0/mingw64/x86_64-w64-mingw32/include\stdio.h **** #pragma GCC diagnostic ignored "-Wshadow"
 302:C:/Program Files/mingw-w64/x86_64-8.1.0-win32-seh-rt_v6-rev0/mingw64/x86_64-w64-mingw32/include\stdio.h **** #endif
 303:C:/Program Files/mingw-w64/x86_64-8.1.0-win32-seh-rt_v6-rev0/mingw64/x86_64-w64-mingw32/include\stdio.h **** 
 304:C:/Program Files/mingw-w64/x86_64-8.1.0-win32-seh-rt_v6-rev0/mingw64/x86_64-w64-mingw32/include\stdio.h **** __mingw_ovr
 305:C:/Program Files/mingw-w64/x86_64-8.1.0-win32-seh-rt_v6-rev0/mingw64/x86_64-w64-mingw32/include\stdio.h **** __attribute__((__format__ (gnu_scanf, 2, 0))) __MINGW_ATTRIB_NONNULL(2)
 306:C:/Program Files/mingw-w64/x86_64-8.1.0-win32-seh-rt_v6-rev0/mingw64/x86_64-w64-mingw32/include\stdio.h **** int vsscanf (const char *__source, const char *__format, __builtin_va_list __local_argv)
 307:C:/Program Files/mingw-w64/x86_64-8.1.0-win32-seh-rt_v6-rev0/mingw64/x86_64-w64-mingw32/include\stdio.h **** {
 308:C:/Program Files/mingw-w64/x86_64-8.1.0-win32-seh-rt_v6-rev0/mingw64/x86_64-w64-mingw32/include\stdio.h ****   return __mingw_vsscanf( __source, __format, __local_argv );
 309:C:/Program Files/mingw-w64/x86_64-8.1.0-win32-seh-rt_v6-rev0/mingw64/x86_64-w64-mingw32/include\stdio.h **** }
 310:C:/Program Files/mingw-w64/x86_64-8.1.0-win32-seh-rt_v6-rev0/mingw64/x86_64-w64-mingw32/include\stdio.h **** 
 311:C:/Program Files/mingw-w64/x86_64-8.1.0-win32-seh-rt_v6-rev0/mingw64/x86_64-w64-mingw32/include\stdio.h **** __mingw_ovr
 312:C:/Program Files/mingw-w64/x86_64-8.1.0-win32-seh-rt_v6-rev0/mingw64/x86_64-w64-mingw32/include\stdio.h **** __attribute__((__format__ (gnu_scanf, 1, 0))) __MINGW_ATTRIB_NONNULL(1)
 313:C:/Program Files/mingw-w64/x86_64-8.1.0-win32-seh-rt_v6-rev0/mingw64/x86_64-w64-mingw32/include\stdio.h **** int vscanf(const char *__format,  __builtin_va_list __local_argv)
 314:C:/Program Files/mingw-w64/x86_64-8.1.0-win32-seh-rt_v6-rev0/mingw64/x86_64-w64-mingw32/include\stdio.h **** {
 315:C:/Program Files/mingw-w64/x86_64-8.1.0-win32-seh-rt_v6-rev0/mingw64/x86_64-w64-mingw32/include\stdio.h ****   return __mingw_vfscanf( stdin, __format, __local_argv );
 316:C:/Program Files/mingw-w64/x86_64-8.1.0-win32-seh-rt_v6-rev0/mingw64/x86_64-w64-mingw32/include\stdio.h **** }
 317:C:/Program Files/mingw-w64/x86_64-8.1.0-win32-seh-rt_v6-rev0/mingw64/x86_64-w64-mingw32/include\stdio.h **** 
 318:C:/Program Files/mingw-w64/x86_64-8.1.0-win32-seh-rt_v6-rev0/mingw64/x86_64-w64-mingw32/include\stdio.h **** __mingw_ovr
 319:C:/Program Files/mingw-w64/x86_64-8.1.0-win32-seh-rt_v6-rev0/mingw64/x86_64-w64-mingw32/include\stdio.h **** __attribute__((__format__ (gnu_scanf, 2, 0))) __MINGW_ATTRIB_NONNULL(2)
 320:C:/Program Files/mingw-w64/x86_64-8.1.0-win32-seh-rt_v6-rev0/mingw64/x86_64-w64-mingw32/include\stdio.h **** int vfscanf (FILE *__stream,  const char *__format, __builtin_va_list __local_argv)
 321:C:/Program Files/mingw-w64/x86_64-8.1.0-win32-seh-rt_v6-rev0/mingw64/x86_64-w64-mingw32/include\stdio.h **** {
 322:C:/Program Files/mingw-w64/x86_64-8.1.0-win32-seh-rt_v6-rev0/mingw64/x86_64-w64-mingw32/include\stdio.h ****   return __mingw_vfscanf( __stream, __format, __local_argv );
 323:C:/Program Files/mingw-w64/x86_64-8.1.0-win32-seh-rt_v6-rev0/mingw64/x86_64-w64-mingw32/include\stdio.h **** }
 324:C:/Program Files/mingw-w64/x86_64-8.1.0-win32-seh-rt_v6-rev0/mingw64/x86_64-w64-mingw32/include\stdio.h **** 
 325:C:/Program Files/mingw-w64/x86_64-8.1.0-win32-seh-rt_v6-rev0/mingw64/x86_64-w64-mingw32/include\stdio.h **** #ifdef __GNUC__
 326:C:/Program Files/mingw-w64/x86_64-8.1.0-win32-seh-rt_v6-rev0/mingw64/x86_64-w64-mingw32/include\stdio.h **** #pragma GCC diagnostic pop
 327:C:/Program Files/mingw-w64/x86_64-8.1.0-win32-seh-rt_v6-rev0/mingw64/x86_64-w64-mingw32/include\stdio.h **** #endif
 328:C:/Program Files/mingw-w64/x86_64-8.1.0-win32-seh-rt_v6-rev0/mingw64/x86_64-w64-mingw32/include\stdio.h **** #endif /* __NO_ISOCEXT */
 329:C:/Program Files/mingw-w64/x86_64-8.1.0-win32-seh-rt_v6-rev0/mingw64/x86_64-w64-mingw32/include\stdio.h **** 
 330:C:/Program Files/mingw-w64/x86_64-8.1.0-win32-seh-rt_v6-rev0/mingw64/x86_64-w64-mingw32/include\stdio.h **** 
 331:C:/Program Files/mingw-w64/x86_64-8.1.0-win32-seh-rt_v6-rev0/mingw64/x86_64-w64-mingw32/include\stdio.h **** 
 332:C:/Program Files/mingw-w64/x86_64-8.1.0-win32-seh-rt_v6-rev0/mingw64/x86_64-w64-mingw32/include\stdio.h **** __mingw_ovr
 333:C:/Program Files/mingw-w64/x86_64-8.1.0-win32-seh-rt_v6-rev0/mingw64/x86_64-w64-mingw32/include\stdio.h **** __attribute__((__format__ (gnu_printf, 2, 3))) __MINGW_ATTRIB_NONNULL(2)
 334:C:/Program Files/mingw-w64/x86_64-8.1.0-win32-seh-rt_v6-rev0/mingw64/x86_64-w64-mingw32/include\stdio.h **** int fprintf (FILE *__stream, const char *__format, ...)
 335:C:/Program Files/mingw-w64/x86_64-8.1.0-win32-seh-rt_v6-rev0/mingw64/x86_64-w64-mingw32/include\stdio.h **** {
 336:C:/Program Files/mingw-w64/x86_64-8.1.0-win32-seh-rt_v6-rev0/mingw64/x86_64-w64-mingw32/include\stdio.h ****   int __retval;
 337:C:/Program Files/mingw-w64/x86_64-8.1.0-win32-seh-rt_v6-rev0/mingw64/x86_64-w64-mingw32/include\stdio.h ****   __builtin_va_list __local_argv; __builtin_va_start( __local_argv, __format );
 338:C:/Program Files/mingw-w64/x86_64-8.1.0-win32-seh-rt_v6-rev0/mingw64/x86_64-w64-mingw32/include\stdio.h ****   __retval = __mingw_vfprintf( __stream, __format, __local_argv );
 339:C:/Program Files/mingw-w64/x86_64-8.1.0-win32-seh-rt_v6-rev0/mingw64/x86_64-w64-mingw32/include\stdio.h ****   __builtin_va_end( __local_argv );
 340:C:/Program Files/mingw-w64/x86_64-8.1.0-win32-seh-rt_v6-rev0/mingw64/x86_64-w64-mingw32/include\stdio.h ****   return __retval;
 341:C:/Program Files/mingw-w64/x86_64-8.1.0-win32-seh-rt_v6-rev0/mingw64/x86_64-w64-mingw32/include\stdio.h **** }
 342:C:/Program Files/mingw-w64/x86_64-8.1.0-win32-seh-rt_v6-rev0/mingw64/x86_64-w64-mingw32/include\stdio.h **** 
 343:C:/Program Files/mingw-w64/x86_64-8.1.0-win32-seh-rt_v6-rev0/mingw64/x86_64-w64-mingw32/include\stdio.h **** __mingw_ovr
 344:C:/Program Files/mingw-w64/x86_64-8.1.0-win32-seh-rt_v6-rev0/mingw64/x86_64-w64-mingw32/include\stdio.h **** __attribute__((__format__ (gnu_printf, 1, 2))) __MINGW_ATTRIB_NONNULL(1)
 345:C:/Program Files/mingw-w64/x86_64-8.1.0-win32-seh-rt_v6-rev0/mingw64/x86_64-w64-mingw32/include\stdio.h **** int printf (const char *__format, ...)
 346:C:/Program Files/mingw-w64/x86_64-8.1.0-win32-seh-rt_v6-rev0/mingw64/x86_64-w64-mingw32/include\stdio.h **** {
  68              		.loc 1 346 1
  69              		.cfi_startproc
  70 0000 55       		pushq	%rbp
  71              		.seh_pushreg	%rbp
  72              		.cfi_def_cfa_offset 16
  73              		.cfi_offset 6, -16
  74 0001 53       		pushq	%rbx
  75              		.seh_pushreg	%rbx
  76              		.cfi_def_cfa_offset 24
  77              		.cfi_offset 3, -24
  78 0002 4883EC38 		subq	$56, %rsp
  79              		.seh_stackalloc	56
  80              		.cfi_def_cfa_offset 80
  81 0006 488DAC24 		leaq	128(%rsp), %rbp
  81      80000000 
  82              		.seh_setframe	%rbp, 128
  83              		.cfi_def_cfa 6, -48
  84              		.seh_endprologue
  85 000e 48894DD0 		movq	%rcx, -48(%rbp)
  86 0012 488955D8 		movq	%rdx, -40(%rbp)
  87 0016 4C8945E0 		movq	%r8, -32(%rbp)
  88 001a 4C894DE8 		movq	%r9, -24(%rbp)
 347:C:/Program Files/mingw-w64/x86_64-8.1.0-win32-seh-rt_v6-rev0/mingw64/x86_64-w64-mingw32/include\stdio.h ****   int __retval;
 348:C:/Program Files/mingw-w64/x86_64-8.1.0-win32-seh-rt_v6-rev0/mingw64/x86_64-w64-mingw32/include\stdio.h ****   __builtin_va_list __local_argv; __builtin_va_start( __local_argv, __format );
  89              		.loc 1 348 53
  90 001e 488D45D8 		leaq	-40(%rbp), %rax
  91 0022 488945A0 		movq	%rax, -96(%rbp)
 349:C:/Program Files/mingw-w64/x86_64-8.1.0-win32-seh-rt_v6-rev0/mingw64/x86_64-w64-mingw32/include\stdio.h ****   __retval = __mingw_vfprintf( stdout, __format, __local_argv );
  92              		.loc 1 349 30
  93 0026 488B5DA0 		movq	-96(%rbp), %rbx
  94 002a B9010000 		movl	$1, %ecx
  94      00
  95 002f 488B0500 		movq	__imp___acrt_iob_func(%rip), %rax
  95      000000
  96 0036 FFD0     		call	*%rax
  97              	.LVL1:
  98 0038 4989D8   		movq	%rbx, %r8
  99 003b 488B55D0 		movq	-48(%rbp), %rdx
 100 003f 4889C1   		movq	%rax, %rcx
 101 0042 E8000000 		call	__mingw_vfprintf
 101      00
 102 0047 8945AC   		movl	%eax, -84(%rbp)
 350:C:/Program Files/mingw-w64/x86_64-8.1.0-win32-seh-rt_v6-rev0/mingw64/x86_64-w64-mingw32/include\stdio.h ****   __builtin_va_end( __local_argv );
 351:C:/Program Files/mingw-w64/x86_64-8.1.0-win32-seh-rt_v6-rev0/mingw64/x86_64-w64-mingw32/include\stdio.h ****   return __retval;
 103              		.loc 1 351 10
 104 004a 8B45AC   		movl	-84(%rbp), %eax
 352:C:/Program Files/mingw-w64/x86_64-8.1.0-win32-seh-rt_v6-rev0/mingw64/x86_64-w64-mingw32/include\stdio.h **** }
 105              		.loc 1 352 1
 106 004d 4883C438 		addq	$56, %rsp
 107 0051 5B       		popq	%rbx
 108              		.cfi_restore 3
 109 0052 5D       		popq	%rbp
 110              		.cfi_restore 6
 111              		.cfi_def_cfa 7, -40
 112 0053 C3       		ret
 113              		.cfi_endproc
 114              	.LFE482:
 115              		.seh_endproc
 116 0054 90909090 		.section .rdata,"dr"
 116      90909090 
 116      90909090 
 117              		.align 4
 118              	_ZL1M:
 119 0000 C8000000 		.long	200
 120              		.globl	f
 121              		.bss
 122              		.align 32
 123              	f:
 124 0000 00000000 		.space 804
 124      00000000 
 124      00000000 
 124      00000000 
 124      00000000 
 126 0324 00000000 		.section .rdata,"dr"
 126      00000000 
 126      00000000 
 126      00000000 
 126      00000000 
 127              	.LC0:
 128 0004 25642564 		.ascii "%d%d\0"
 128      00
 129              	.LC1:
 130 0009 256400   		.ascii "%d\0"
 131 000c 00000000 		.text
 132              		.globl	main
 134              		.seh_proc	main
 135              	main:
 136              	.LFB518:
 137              		.file 2 "../code/C++/01\261\263\260\374\316\312\314\342/19_1_DP.cpp"
   1:../code/C++/01/19_1_DP.cpp **** // AC
   2:../code/C++/01/19_1_DP.cpp **** #include <algorithm>
   3:../code/C++/01/19_1_DP.cpp **** #include <cstdio>
   4:../code/C++/01/19_1_DP.cpp **** 
   5:../code/C++/01/19_1_DP.cpp **** using std::max;
   6:../code/C++/01/19_1_DP.cpp **** 
   7:../code/C++/01/19_1_DP.cpp **** const int M = 200;
   8:../code/C++/01/19_1_DP.cpp **** int f[M + 1];
   9:../code/C++/01/19_1_DP.cpp **** 
  10:../code/C++/01/19_1_DP.cpp **** int main()
  11:../code/C++/01/19_1_DP.cpp **** {
 138              		.loc 2 11 1
 139              		.cfi_startproc
 140 0000 55       		pushq	%rbp
 141              		.seh_pushreg	%rbp
 142              		.cfi_def_cfa_offset 16
 143              		.cfi_offset 6, -16
 144 0001 4889E5   		movq	%rsp, %rbp
 145              		.seh_setframe	%rbp, 0
 146              		.cfi_def_cfa_register 6
 147 0004 4883EC40 		subq	$64, %rsp
 148              		.seh_stackalloc	64
 149              		.seh_endprologue
 150              		.loc 2 11 1
 151 0008 E8000000 		call	__main
 151      00
 152              	.LVL2:
  12:../code/C++/01/19_1_DP.cpp **** 	int m, n;
  13:../code/C++/01/19_1_DP.cpp **** 	scanf("%d%d", &m, &n);
 153              		.loc 2 13 7
 154 000d 488D55EC 		leaq	-20(%rbp), %rdx
 155 0011 488D45F0 		leaq	-16(%rbp), %rax
 156 0015 4989D0   		movq	%rdx, %r8
 157 0018 4889C2   		movq	%rax, %rdx
 158 001b 488D0D04 		leaq	.LC0(%rip), %rcx
 158      000000
 159 0022 E8000000 		call	_Z5scanfPKcz
 159      00
 160              	.LBB2:
  14:../code/C++/01/19_1_DP.cpp **** 	for (int i = 0; i < n; ++i)
 161              		.loc 2 14 11
 162 0027 C745FC00 		movl	$0, -4(%rbp)
 162      000000
 163              	.L9:
 164              		.loc 2 14 20 discriminator 1
 165 002e 8B45EC   		movl	-20(%rbp), %eax
 166 0031 3945FC   		cmpl	%eax, -4(%rbp)
 167 0034 0F8D9A00 		jge	.L6
 167      0000
 168              	.LBB3:
  15:../code/C++/01/19_1_DP.cpp **** 	{
  16:../code/C++/01/19_1_DP.cpp **** 		int w, c;
  17:../code/C++/01/19_1_DP.cpp **** 		scanf("%d%d", &w, &c);
 169              		.loc 2 17 8
 170 003a 488D55E4 		leaq	-28(%rbp), %rdx
 171 003e 488D45E8 		leaq	-24(%rbp), %rax
 172 0042 4989D0   		movq	%rdx, %r8
 173 0045 4889C2   		movq	%rax, %rdx
 174 0048 488D0D04 		leaq	.LC0(%rip), %rcx
 174      000000
 175 004f E8000000 		call	_Z5scanfPKcz
 175      00
 176              	.LBB4:
  18:../code/C++/01/19_1_DP.cpp **** 		for (int j = m; j >= w; --j) f[j] = max(f[j], f[j - w] + c);
 177              		.loc 2 18 12
 178 0054 8B45F0   		movl	-16(%rbp), %eax
 179 0057 8945F8   		movl	%eax, -8(%rbp)
 180              	.L8:
 181              		.loc 2 18 21 discriminator 3
 182 005a 8B45E8   		movl	-24(%rbp), %eax
 183 005d 3945F8   		cmpl	%eax, -8(%rbp)
 184 0060 7C69     		jl	.L7
 185              		.loc 2 18 53 discriminator 2
 186 0062 8B45E8   		movl	-24(%rbp), %eax
 187 0065 8B55F8   		movl	-8(%rbp), %edx
 188 0068 29C2     		subl	%eax, %edx
 189 006a 89D0     		movl	%edx, %eax
 190              		.loc 2 18 56 discriminator 2
 191 006c 4898     		cltq
 192 006e 488D1485 		leaq	0(,%rax,4), %rdx
 192      00000000 
 193 0076 488D0500 		leaq	f(%rip), %rax
 193      000000
 194 007d 8B1402   		movl	(%rdx,%rax), %edx
 195              		.loc 2 18 58 discriminator 2
 196 0080 8B45E4   		movl	-28(%rbp), %eax
 197 0083 01D0     		addl	%edx, %eax
 198 0085 8945F4   		movl	%eax, -12(%rbp)
 199              		.loc 2 18 46 discriminator 2
 200 0088 8B45F8   		movl	-8(%rbp), %eax
 201 008b 4898     		cltq
 202 008d 488D1485 		leaq	0(,%rax,4), %rdx
 202      00000000 
 203 0095 488D0500 		leaq	f(%rip), %rax
 203      000000
 204 009c 488D0C02 		leaq	(%rdx,%rax), %rcx
 205              		.loc 2 18 61 discriminator 2
 206 00a0 488D45F4 		leaq	-12(%rbp), %rax
 207 00a4 4889C2   		movq	%rax, %rdx
 208 00a7 E8000000 		call	_ZSt3maxIiERKT_S2_S2_
 208      00
 209              		.loc 2 18 42 discriminator 2
 210 00ac 8B08     		movl	(%rax), %ecx
 211              		.loc 2 18 37 discriminator 2
 212 00ae 8B45F8   		movl	-8(%rbp), %eax
 213 00b1 4898     		cltq
 214 00b3 488D1485 		leaq	0(,%rax,4), %rdx
 214      00000000 
 215 00bb 488D0500 		leaq	f(%rip), %rax
 215      000000
 216 00c2 890C02   		movl	%ecx, (%rdx,%rax)
 217              		.loc 2 18 3 discriminator 2
 218 00c5 836DF801 		subl	$1, -8(%rbp)
 219 00c9 EB8F     		jmp	.L8
 220              	.L7:
 221              	.LBE4:
 222              	.LBE3:
  14:../code/C++/01/19_1_DP.cpp **** 	for (int i = 0; i < n; ++i)
 223              		.loc 2 14 2 discriminator 2
 224 00cb 8345FC01 		addl	$1, -4(%rbp)
 225 00cf E95AFFFF 		jmp	.L9
 225      FF
 226              	.L6:
 227              	.LBE2:
  19:../code/C++/01/19_1_DP.cpp **** 	}
  20:../code/C++/01/19_1_DP.cpp **** 	printf("%d", f[m]);
 228              		.loc 2 20 8
 229 00d4 8B45F0   		movl	-16(%rbp), %eax
 230 00d7 4898     		cltq
 231 00d9 488D1485 		leaq	0(,%rax,4), %rdx
 231      00000000 
 232 00e1 488D0500 		leaq	f(%rip), %rax
 232      000000
 233 00e8 8B0402   		movl	(%rdx,%rax), %eax
 234 00eb 89C2     		movl	%eax, %edx
 235 00ed 488D0D09 		leaq	.LC1(%rip), %rcx
 235      000000
 236 00f4 E8000000 		call	_Z6printfPKcz
 236      00
  21:../code/C++/01/19_1_DP.cpp **** 	return 0;
 237              		.loc 2 21 9
 238 00f9 B8000000 		movl	$0, %eax
 238      00
  22:../code/C++/01/19_1_DP.cpp **** }...
 239              		.loc 2 22 1
 240 00fe 4883C440 		addq	$64, %rsp
 241 0102 5D       		popq	%rbp
 242              		.cfi_restore 6
 243              		.cfi_def_cfa 7, 8
 244 0103 C3       		ret
 245              		.cfi_endproc
 246              	.LFE518:
 247              		.seh_endproc
 248              		.section	.text$_ZSt3maxIiERKT_S2_S2_,"x"
 249              		.linkonce discard
 250              		.globl	_ZSt3maxIiERKT_S2_S2_
 252              		.seh_proc	_ZSt3maxIiERKT_S2_S2_
 253              	_ZSt3maxIiERKT_S2_S2_:
 254              	.LFB519:
 255              		.file 3 "C:/Program Files/mingw-w64/x86_64-8.1.0-win32-seh-rt_v6-rev0/mingw64/lib/gcc/x86_64-w64-m
   1:C:/Program Files/mingw-w64/x86_64-8.1.0-win32-seh-rt_v6-rev0/mingw64/lib/gcc/x86_64-w64-mingw32/8.1.0/include/c++/bits\stl_algobase.h **** // Core algorithmic facilities -*- C++ -*-
   2:C:/Program Files/mingw-w64/x86_64-8.1.0-win32-seh-rt_v6-rev0/mingw64/lib/gcc/x86_64-w64-mingw32/8.1.0/include/c++/bits\stl_algobase.h **** 
   3:C:/Program Files/mingw-w64/x86_64-8.1.0-win32-seh-rt_v6-rev0/mingw64/lib/gcc/x86_64-w64-mingw32/8.1.0/include/c++/bits\stl_algobase.h **** // Copyright (C) 2001-2018 Free Software Foundation, Inc.
   4:C:/Program Files/mingw-w64/x86_64-8.1.0-win32-seh-rt_v6-rev0/mingw64/lib/gcc/x86_64-w64-mingw32/8.1.0/include/c++/bits\stl_algobase.h **** //
   5:C:/Program Files/mingw-w64/x86_64-8.1.0-win32-seh-rt_v6-rev0/mingw64/lib/gcc/x86_64-w64-mingw32/8.1.0/include/c++/bits\stl_algobase.h **** // This file is part of the GNU ISO C++ Library.  This library is free
   6:C:/Program Files/mingw-w64/x86_64-8.1.0-win32-seh-rt_v6-rev0/mingw64/lib/gcc/x86_64-w64-mingw32/8.1.0/include/c++/bits\stl_algobase.h **** // software; you can redistribute it and/or modify it under the
   7:C:/Program Files/mingw-w64/x86_64-8.1.0-win32-seh-rt_v6-rev0/mingw64/lib/gcc/x86_64-w64-mingw32/8.1.0/include/c++/bits\stl_algobase.h **** // terms of the GNU General Public License as published by the
   8:C:/Program Files/mingw-w64/x86_64-8.1.0-win32-seh-rt_v6-rev0/mingw64/lib/gcc/x86_64-w64-mingw32/8.1.0/include/c++/bits\stl_algobase.h **** // Free Software Foundation; either version 3, or (at your option)
   9:C:/Program Files/mingw-w64/x86_64-8.1.0-win32-seh-rt_v6-rev0/mingw64/lib/gcc/x86_64-w64-mingw32/8.1.0/include/c++/bits\stl_algobase.h **** // any later version.
  10:C:/Program Files/mingw-w64/x86_64-8.1.0-win32-seh-rt_v6-rev0/mingw64/lib/gcc/x86_64-w64-mingw32/8.1.0/include/c++/bits\stl_algobase.h **** 
  11:C:/Program Files/mingw-w64/x86_64-8.1.0-win32-seh-rt_v6-rev0/mingw64/lib/gcc/x86_64-w64-mingw32/8.1.0/include/c++/bits\stl_algobase.h **** // This library is distributed in the hope that it will be useful,
  12:C:/Program Files/mingw-w64/x86_64-8.1.0-win32-seh-rt_v6-rev0/mingw64/lib/gcc/x86_64-w64-mingw32/8.1.0/include/c++/bits\stl_algobase.h **** // but WITHOUT ANY WARRANTY; without even the implied warranty of
  13:C:/Program Files/mingw-w64/x86_64-8.1.0-win32-seh-rt_v6-rev0/mingw64/lib/gcc/x86_64-w64-mingw32/8.1.0/include/c++/bits\stl_algobase.h **** // MERCHANTABILITY or FITNESS FOR A PARTICULAR PURPOSE.  See the
  14:C:/Program Files/mingw-w64/x86_64-8.1.0-win32-seh-rt_v6-rev0/mingw64/lib/gcc/x86_64-w64-mingw32/8.1.0/include/c++/bits\stl_algobase.h **** // GNU General Public License for more details.
  15:C:/Program Files/mingw-w64/x86_64-8.1.0-win32-seh-rt_v6-rev0/mingw64/lib/gcc/x86_64-w64-mingw32/8.1.0/include/c++/bits\stl_algobase.h **** 
  16:C:/Program Files/mingw-w64/x86_64-8.1.0-win32-seh-rt_v6-rev0/mingw64/lib/gcc/x86_64-w64-mingw32/8.1.0/include/c++/bits\stl_algobase.h **** // Under Section 7 of GPL version 3, you are granted additional
  17:C:/Program Files/mingw-w64/x86_64-8.1.0-win32-seh-rt_v6-rev0/mingw64/lib/gcc/x86_64-w64-mingw32/8.1.0/include/c++/bits\stl_algobase.h **** // permissions described in the GCC Runtime Library Exception, version
  18:C:/Program Files/mingw-w64/x86_64-8.1.0-win32-seh-rt_v6-rev0/mingw64/lib/gcc/x86_64-w64-mingw32/8.1.0/include/c++/bits\stl_algobase.h **** // 3.1, as published by the Free Software Foundation.
  19:C:/Program Files/mingw-w64/x86_64-8.1.0-win32-seh-rt_v6-rev0/mingw64/lib/gcc/x86_64-w64-mingw32/8.1.0/include/c++/bits\stl_algobase.h **** 
  20:C:/Program Files/mingw-w64/x86_64-8.1.0-win32-seh-rt_v6-rev0/mingw64/lib/gcc/x86_64-w64-mingw32/8.1.0/include/c++/bits\stl_algobase.h **** // You should have received a copy of the GNU General Public License and
  21:C:/Program Files/mingw-w64/x86_64-8.1.0-win32-seh-rt_v6-rev0/mingw64/lib/gcc/x86_64-w64-mingw32/8.1.0/include/c++/bits\stl_algobase.h **** // a copy of the GCC Runtime Library Exception along with this program;
  22:C:/Program Files/mingw-w64/x86_64-8.1.0-win32-seh-rt_v6-rev0/mingw64/lib/gcc/x86_64-w64-mingw32/8.1.0/include/c++/bits\stl_algobase.h **** // see the files COPYING3 and COPYING.RUNTIME respectively.  If not, see
  23:C:/Program Files/mingw-w64/x86_64-8.1.0-win32-seh-rt_v6-rev0/mingw64/lib/gcc/x86_64-w64-mingw32/8.1.0/include/c++/bits\stl_algobase.h **** // <http://www.gnu.org/licenses/>.
  24:C:/Program Files/mingw-w64/x86_64-8.1.0-win32-seh-rt_v6-rev0/mingw64/lib/gcc/x86_64-w64-mingw32/8.1.0/include/c++/bits\stl_algobase.h **** 
  25:C:/Program Files/mingw-w64/x86_64-8.1.0-win32-seh-rt_v6-rev0/mingw64/lib/gcc/x86_64-w64-mingw32/8.1.0/include/c++/bits\stl_algobase.h **** /*
  26:C:/Program Files/mingw-w64/x86_64-8.1.0-win32-seh-rt_v6-rev0/mingw64/lib/gcc/x86_64-w64-mingw32/8.1.0/include/c++/bits\stl_algobase.h ****  *
  27:C:/Program Files/mingw-w64/x86_64-8.1.0-win32-seh-rt_v6-rev0/mingw64/lib/gcc/x86_64-w64-mingw32/8.1.0/include/c++/bits\stl_algobase.h ****  * Copyright (c) 1994
  28:C:/Program Files/mingw-w64/x86_64-8.1.0-win32-seh-rt_v6-rev0/mingw64/lib/gcc/x86_64-w64-mingw32/8.1.0/include/c++/bits\stl_algobase.h ****  * Hewlett-Packard Company
  29:C:/Program Files/mingw-w64/x86_64-8.1.0-win32-seh-rt_v6-rev0/mingw64/lib/gcc/x86_64-w64-mingw32/8.1.0/include/c++/bits\stl_algobase.h ****  *
  30:C:/Program Files/mingw-w64/x86_64-8.1.0-win32-seh-rt_v6-rev0/mingw64/lib/gcc/x86_64-w64-mingw32/8.1.0/include/c++/bits\stl_algobase.h ****  * Permission to use, copy, modify, distribute and sell this software
  31:C:/Program Files/mingw-w64/x86_64-8.1.0-win32-seh-rt_v6-rev0/mingw64/lib/gcc/x86_64-w64-mingw32/8.1.0/include/c++/bits\stl_algobase.h ****  * and its documentation for any purpose is hereby granted without fee,
  32:C:/Program Files/mingw-w64/x86_64-8.1.0-win32-seh-rt_v6-rev0/mingw64/lib/gcc/x86_64-w64-mingw32/8.1.0/include/c++/bits\stl_algobase.h ****  * provided that the above copyright notice appear in all copies and
  33:C:/Program Files/mingw-w64/x86_64-8.1.0-win32-seh-rt_v6-rev0/mingw64/lib/gcc/x86_64-w64-mingw32/8.1.0/include/c++/bits\stl_algobase.h ****  * that both that copyright notice and this permission notice appear
  34:C:/Program Files/mingw-w64/x86_64-8.1.0-win32-seh-rt_v6-rev0/mingw64/lib/gcc/x86_64-w64-mingw32/8.1.0/include/c++/bits\stl_algobase.h ****  * in supporting documentation.  Hewlett-Packard Company makes no
  35:C:/Program Files/mingw-w64/x86_64-8.1.0-win32-seh-rt_v6-rev0/mingw64/lib/gcc/x86_64-w64-mingw32/8.1.0/include/c++/bits\stl_algobase.h ****  * representations about the suitability of this software for any
  36:C:/Program Files/mingw-w64/x86_64-8.1.0-win32-seh-rt_v6-rev0/mingw64/lib/gcc/x86_64-w64-mingw32/8.1.0/include/c++/bits\stl_algobase.h ****  * purpose.  It is provided "as is" without express or implied warranty.
  37:C:/Program Files/mingw-w64/x86_64-8.1.0-win32-seh-rt_v6-rev0/mingw64/lib/gcc/x86_64-w64-mingw32/8.1.0/include/c++/bits\stl_algobase.h ****  *
  38:C:/Program Files/mingw-w64/x86_64-8.1.0-win32-seh-rt_v6-rev0/mingw64/lib/gcc/x86_64-w64-mingw32/8.1.0/include/c++/bits\stl_algobase.h ****  *
  39:C:/Program Files/mingw-w64/x86_64-8.1.0-win32-seh-rt_v6-rev0/mingw64/lib/gcc/x86_64-w64-mingw32/8.1.0/include/c++/bits\stl_algobase.h ****  * Copyright (c) 1996-1998
  40:C:/Program Files/mingw-w64/x86_64-8.1.0-win32-seh-rt_v6-rev0/mingw64/lib/gcc/x86_64-w64-mingw32/8.1.0/include/c++/bits\stl_algobase.h ****  * Silicon Graphics Computer Systems, Inc.
  41:C:/Program Files/mingw-w64/x86_64-8.1.0-win32-seh-rt_v6-rev0/mingw64/lib/gcc/x86_64-w64-mingw32/8.1.0/include/c++/bits\stl_algobase.h ****  *
  42:C:/Program Files/mingw-w64/x86_64-8.1.0-win32-seh-rt_v6-rev0/mingw64/lib/gcc/x86_64-w64-mingw32/8.1.0/include/c++/bits\stl_algobase.h ****  * Permission to use, copy, modify, distribute and sell this software
  43:C:/Program Files/mingw-w64/x86_64-8.1.0-win32-seh-rt_v6-rev0/mingw64/lib/gcc/x86_64-w64-mingw32/8.1.0/include/c++/bits\stl_algobase.h ****  * and its documentation for any purpose is hereby granted without fee,
  44:C:/Program Files/mingw-w64/x86_64-8.1.0-win32-seh-rt_v6-rev0/mingw64/lib/gcc/x86_64-w64-mingw32/8.1.0/include/c++/bits\stl_algobase.h ****  * provided that the above copyright notice appear in all copies and
  45:C:/Program Files/mingw-w64/x86_64-8.1.0-win32-seh-rt_v6-rev0/mingw64/lib/gcc/x86_64-w64-mingw32/8.1.0/include/c++/bits\stl_algobase.h ****  * that both that copyright notice and this permission notice appear
  46:C:/Program Files/mingw-w64/x86_64-8.1.0-win32-seh-rt_v6-rev0/mingw64/lib/gcc/x86_64-w64-mingw32/8.1.0/include/c++/bits\stl_algobase.h ****  * in supporting documentation.  Silicon Graphics makes no
  47:C:/Program Files/mingw-w64/x86_64-8.1.0-win32-seh-rt_v6-rev0/mingw64/lib/gcc/x86_64-w64-mingw32/8.1.0/include/c++/bits\stl_algobase.h ****  * representations about the suitability of this software for any
  48:C:/Program Files/mingw-w64/x86_64-8.1.0-win32-seh-rt_v6-rev0/mingw64/lib/gcc/x86_64-w64-mingw32/8.1.0/include/c++/bits\stl_algobase.h ****  * purpose.  It is provided "as is" without express or implied warranty.
  49:C:/Program Files/mingw-w64/x86_64-8.1.0-win32-seh-rt_v6-rev0/mingw64/lib/gcc/x86_64-w64-mingw32/8.1.0/include/c++/bits\stl_algobase.h ****  */
  50:C:/Program Files/mingw-w64/x86_64-8.1.0-win32-seh-rt_v6-rev0/mingw64/lib/gcc/x86_64-w64-mingw32/8.1.0/include/c++/bits\stl_algobase.h **** 
  51:C:/Program Files/mingw-w64/x86_64-8.1.0-win32-seh-rt_v6-rev0/mingw64/lib/gcc/x86_64-w64-mingw32/8.1.0/include/c++/bits\stl_algobase.h **** /** @file bits/stl_algobase.h
  52:C:/Program Files/mingw-w64/x86_64-8.1.0-win32-seh-rt_v6-rev0/mingw64/lib/gcc/x86_64-w64-mingw32/8.1.0/include/c++/bits\stl_algobase.h ****  *  This is an internal header file, included by other library headers.
  53:C:/Program Files/mingw-w64/x86_64-8.1.0-win32-seh-rt_v6-rev0/mingw64/lib/gcc/x86_64-w64-mingw32/8.1.0/include/c++/bits\stl_algobase.h ****  *  Do not attempt to use it directly. @headername{algorithm}
  54:C:/Program Files/mingw-w64/x86_64-8.1.0-win32-seh-rt_v6-rev0/mingw64/lib/gcc/x86_64-w64-mingw32/8.1.0/include/c++/bits\stl_algobase.h ****  */
  55:C:/Program Files/mingw-w64/x86_64-8.1.0-win32-seh-rt_v6-rev0/mingw64/lib/gcc/x86_64-w64-mingw32/8.1.0/include/c++/bits\stl_algobase.h **** 
  56:C:/Program Files/mingw-w64/x86_64-8.1.0-win32-seh-rt_v6-rev0/mingw64/lib/gcc/x86_64-w64-mingw32/8.1.0/include/c++/bits\stl_algobase.h **** #ifndef _STL_ALGOBASE_H
  57:C:/Program Files/mingw-w64/x86_64-8.1.0-win32-seh-rt_v6-rev0/mingw64/lib/gcc/x86_64-w64-mingw32/8.1.0/include/c++/bits\stl_algobase.h **** #define _STL_ALGOBASE_H 1
  58:C:/Program Files/mingw-w64/x86_64-8.1.0-win32-seh-rt_v6-rev0/mingw64/lib/gcc/x86_64-w64-mingw32/8.1.0/include/c++/bits\stl_algobase.h **** 
  59:C:/Program Files/mingw-w64/x86_64-8.1.0-win32-seh-rt_v6-rev0/mingw64/lib/gcc/x86_64-w64-mingw32/8.1.0/include/c++/bits\stl_algobase.h **** #include <bits/c++config.h>
  60:C:/Program Files/mingw-w64/x86_64-8.1.0-win32-seh-rt_v6-rev0/mingw64/lib/gcc/x86_64-w64-mingw32/8.1.0/include/c++/bits\stl_algobase.h **** #include <bits/functexcept.h>
  61:C:/Program Files/mingw-w64/x86_64-8.1.0-win32-seh-rt_v6-rev0/mingw64/lib/gcc/x86_64-w64-mingw32/8.1.0/include/c++/bits\stl_algobase.h **** #include <bits/cpp_type_traits.h>
  62:C:/Program Files/mingw-w64/x86_64-8.1.0-win32-seh-rt_v6-rev0/mingw64/lib/gcc/x86_64-w64-mingw32/8.1.0/include/c++/bits\stl_algobase.h **** #include <ext/type_traits.h>
  63:C:/Program Files/mingw-w64/x86_64-8.1.0-win32-seh-rt_v6-rev0/mingw64/lib/gcc/x86_64-w64-mingw32/8.1.0/include/c++/bits\stl_algobase.h **** #include <ext/numeric_traits.h>
  64:C:/Program Files/mingw-w64/x86_64-8.1.0-win32-seh-rt_v6-rev0/mingw64/lib/gcc/x86_64-w64-mingw32/8.1.0/include/c++/bits\stl_algobase.h **** #include <bits/stl_pair.h>
  65:C:/Program Files/mingw-w64/x86_64-8.1.0-win32-seh-rt_v6-rev0/mingw64/lib/gcc/x86_64-w64-mingw32/8.1.0/include/c++/bits\stl_algobase.h **** #include <bits/stl_iterator_base_types.h>
  66:C:/Program Files/mingw-w64/x86_64-8.1.0-win32-seh-rt_v6-rev0/mingw64/lib/gcc/x86_64-w64-mingw32/8.1.0/include/c++/bits\stl_algobase.h **** #include <bits/stl_iterator_base_funcs.h>
  67:C:/Program Files/mingw-w64/x86_64-8.1.0-win32-seh-rt_v6-rev0/mingw64/lib/gcc/x86_64-w64-mingw32/8.1.0/include/c++/bits\stl_algobase.h **** #include <bits/stl_iterator.h>
  68:C:/Program Files/mingw-w64/x86_64-8.1.0-win32-seh-rt_v6-rev0/mingw64/lib/gcc/x86_64-w64-mingw32/8.1.0/include/c++/bits\stl_algobase.h **** #include <bits/concept_check.h>
  69:C:/Program Files/mingw-w64/x86_64-8.1.0-win32-seh-rt_v6-rev0/mingw64/lib/gcc/x86_64-w64-mingw32/8.1.0/include/c++/bits\stl_algobase.h **** #include <debug/debug.h>
  70:C:/Program Files/mingw-w64/x86_64-8.1.0-win32-seh-rt_v6-rev0/mingw64/lib/gcc/x86_64-w64-mingw32/8.1.0/include/c++/bits\stl_algobase.h **** #include <bits/move.h> // For std::swap
  71:C:/Program Files/mingw-w64/x86_64-8.1.0-win32-seh-rt_v6-rev0/mingw64/lib/gcc/x86_64-w64-mingw32/8.1.0/include/c++/bits\stl_algobase.h **** #include <bits/predefined_ops.h>
  72:C:/Program Files/mingw-w64/x86_64-8.1.0-win32-seh-rt_v6-rev0/mingw64/lib/gcc/x86_64-w64-mingw32/8.1.0/include/c++/bits\stl_algobase.h **** 
  73:C:/Program Files/mingw-w64/x86_64-8.1.0-win32-seh-rt_v6-rev0/mingw64/lib/gcc/x86_64-w64-mingw32/8.1.0/include/c++/bits\stl_algobase.h **** namespace std _GLIBCXX_VISIBILITY(default)
  74:C:/Program Files/mingw-w64/x86_64-8.1.0-win32-seh-rt_v6-rev0/mingw64/lib/gcc/x86_64-w64-mingw32/8.1.0/include/c++/bits\stl_algobase.h **** {
  75:C:/Program Files/mingw-w64/x86_64-8.1.0-win32-seh-rt_v6-rev0/mingw64/lib/gcc/x86_64-w64-mingw32/8.1.0/include/c++/bits\stl_algobase.h **** _GLIBCXX_BEGIN_NAMESPACE_VERSION
  76:C:/Program Files/mingw-w64/x86_64-8.1.0-win32-seh-rt_v6-rev0/mingw64/lib/gcc/x86_64-w64-mingw32/8.1.0/include/c++/bits\stl_algobase.h **** 
  77:C:/Program Files/mingw-w64/x86_64-8.1.0-win32-seh-rt_v6-rev0/mingw64/lib/gcc/x86_64-w64-mingw32/8.1.0/include/c++/bits\stl_algobase.h **** #if __cplusplus < 201103L
  78:C:/Program Files/mingw-w64/x86_64-8.1.0-win32-seh-rt_v6-rev0/mingw64/lib/gcc/x86_64-w64-mingw32/8.1.0/include/c++/bits\stl_algobase.h ****   // See http://gcc.gnu.org/ml/libstdc++/2004-08/msg00167.html: in a
  79:C:/Program Files/mingw-w64/x86_64-8.1.0-win32-seh-rt_v6-rev0/mingw64/lib/gcc/x86_64-w64-mingw32/8.1.0/include/c++/bits\stl_algobase.h ****   // nutshell, we are partially implementing the resolution of DR 187,
  80:C:/Program Files/mingw-w64/x86_64-8.1.0-win32-seh-rt_v6-rev0/mingw64/lib/gcc/x86_64-w64-mingw32/8.1.0/include/c++/bits\stl_algobase.h ****   // when it's safe, i.e., the value_types are equal.
  81:C:/Program Files/mingw-w64/x86_64-8.1.0-win32-seh-rt_v6-rev0/mingw64/lib/gcc/x86_64-w64-mingw32/8.1.0/include/c++/bits\stl_algobase.h ****   template<bool _BoolType>
  82:C:/Program Files/mingw-w64/x86_64-8.1.0-win32-seh-rt_v6-rev0/mingw64/lib/gcc/x86_64-w64-mingw32/8.1.0/include/c++/bits\stl_algobase.h ****     struct __iter_swap
  83:C:/Program Files/mingw-w64/x86_64-8.1.0-win32-seh-rt_v6-rev0/mingw64/lib/gcc/x86_64-w64-mingw32/8.1.0/include/c++/bits\stl_algobase.h ****     {
  84:C:/Program Files/mingw-w64/x86_64-8.1.0-win32-seh-rt_v6-rev0/mingw64/lib/gcc/x86_64-w64-mingw32/8.1.0/include/c++/bits\stl_algobase.h ****       template<typename _ForwardIterator1, typename _ForwardIterator2>
  85:C:/Program Files/mingw-w64/x86_64-8.1.0-win32-seh-rt_v6-rev0/mingw64/lib/gcc/x86_64-w64-mingw32/8.1.0/include/c++/bits\stl_algobase.h **** 	static void
  86:C:/Program Files/mingw-w64/x86_64-8.1.0-win32-seh-rt_v6-rev0/mingw64/lib/gcc/x86_64-w64-mingw32/8.1.0/include/c++/bits\stl_algobase.h **** 	iter_swap(_ForwardIterator1 __a, _ForwardIterator2 __b)
  87:C:/Program Files/mingw-w64/x86_64-8.1.0-win32-seh-rt_v6-rev0/mingw64/lib/gcc/x86_64-w64-mingw32/8.1.0/include/c++/bits\stl_algobase.h **** 	{
  88:C:/Program Files/mingw-w64/x86_64-8.1.0-win32-seh-rt_v6-rev0/mingw64/lib/gcc/x86_64-w64-mingw32/8.1.0/include/c++/bits\stl_algobase.h **** 	  typedef typename iterator_traits<_ForwardIterator1>::value_type
  89:C:/Program Files/mingw-w64/x86_64-8.1.0-win32-seh-rt_v6-rev0/mingw64/lib/gcc/x86_64-w64-mingw32/8.1.0/include/c++/bits\stl_algobase.h **** 	    _ValueType1;
  90:C:/Program Files/mingw-w64/x86_64-8.1.0-win32-seh-rt_v6-rev0/mingw64/lib/gcc/x86_64-w64-mingw32/8.1.0/include/c++/bits\stl_algobase.h **** 	  _ValueType1 __tmp = *__a;
  91:C:/Program Files/mingw-w64/x86_64-8.1.0-win32-seh-rt_v6-rev0/mingw64/lib/gcc/x86_64-w64-mingw32/8.1.0/include/c++/bits\stl_algobase.h **** 	  *__a = *__b;
  92:C:/Program Files/mingw-w64/x86_64-8.1.0-win32-seh-rt_v6-rev0/mingw64/lib/gcc/x86_64-w64-mingw32/8.1.0/include/c++/bits\stl_algobase.h **** 	  *__b = __tmp;
  93:C:/Program Files/mingw-w64/x86_64-8.1.0-win32-seh-rt_v6-rev0/mingw64/lib/gcc/x86_64-w64-mingw32/8.1.0/include/c++/bits\stl_algobase.h **** 	}
  94:C:/Program Files/mingw-w64/x86_64-8.1.0-win32-seh-rt_v6-rev0/mingw64/lib/gcc/x86_64-w64-mingw32/8.1.0/include/c++/bits\stl_algobase.h ****     };
  95:C:/Program Files/mingw-w64/x86_64-8.1.0-win32-seh-rt_v6-rev0/mingw64/lib/gcc/x86_64-w64-mingw32/8.1.0/include/c++/bits\stl_algobase.h **** 
  96:C:/Program Files/mingw-w64/x86_64-8.1.0-win32-seh-rt_v6-rev0/mingw64/lib/gcc/x86_64-w64-mingw32/8.1.0/include/c++/bits\stl_algobase.h ****   template<>
  97:C:/Program Files/mingw-w64/x86_64-8.1.0-win32-seh-rt_v6-rev0/mingw64/lib/gcc/x86_64-w64-mingw32/8.1.0/include/c++/bits\stl_algobase.h ****     struct __iter_swap<true>
  98:C:/Program Files/mingw-w64/x86_64-8.1.0-win32-seh-rt_v6-rev0/mingw64/lib/gcc/x86_64-w64-mingw32/8.1.0/include/c++/bits\stl_algobase.h ****     {
  99:C:/Program Files/mingw-w64/x86_64-8.1.0-win32-seh-rt_v6-rev0/mingw64/lib/gcc/x86_64-w64-mingw32/8.1.0/include/c++/bits\stl_algobase.h ****       template<typename _ForwardIterator1, typename _ForwardIterator2>
 100:C:/Program Files/mingw-w64/x86_64-8.1.0-win32-seh-rt_v6-rev0/mingw64/lib/gcc/x86_64-w64-mingw32/8.1.0/include/c++/bits\stl_algobase.h **** 	static void
 101:C:/Program Files/mingw-w64/x86_64-8.1.0-win32-seh-rt_v6-rev0/mingw64/lib/gcc/x86_64-w64-mingw32/8.1.0/include/c++/bits\stl_algobase.h **** 	iter_swap(_ForwardIterator1 __a, _ForwardIterator2 __b)
 102:C:/Program Files/mingw-w64/x86_64-8.1.0-win32-seh-rt_v6-rev0/mingw64/lib/gcc/x86_64-w64-mingw32/8.1.0/include/c++/bits\stl_algobase.h **** 	{
 103:C:/Program Files/mingw-w64/x86_64-8.1.0-win32-seh-rt_v6-rev0/mingw64/lib/gcc/x86_64-w64-mingw32/8.1.0/include/c++/bits\stl_algobase.h **** 	  swap(*__a, *__b);
 104:C:/Program Files/mingw-w64/x86_64-8.1.0-win32-seh-rt_v6-rev0/mingw64/lib/gcc/x86_64-w64-mingw32/8.1.0/include/c++/bits\stl_algobase.h **** 	}
 105:C:/Program Files/mingw-w64/x86_64-8.1.0-win32-seh-rt_v6-rev0/mingw64/lib/gcc/x86_64-w64-mingw32/8.1.0/include/c++/bits\stl_algobase.h ****     };
 106:C:/Program Files/mingw-w64/x86_64-8.1.0-win32-seh-rt_v6-rev0/mingw64/lib/gcc/x86_64-w64-mingw32/8.1.0/include/c++/bits\stl_algobase.h **** #endif
 107:C:/Program Files/mingw-w64/x86_64-8.1.0-win32-seh-rt_v6-rev0/mingw64/lib/gcc/x86_64-w64-mingw32/8.1.0/include/c++/bits\stl_algobase.h **** 
 108:C:/Program Files/mingw-w64/x86_64-8.1.0-win32-seh-rt_v6-rev0/mingw64/lib/gcc/x86_64-w64-mingw32/8.1.0/include/c++/bits\stl_algobase.h ****   /**
 109:C:/Program Files/mingw-w64/x86_64-8.1.0-win32-seh-rt_v6-rev0/mingw64/lib/gcc/x86_64-w64-mingw32/8.1.0/include/c++/bits\stl_algobase.h ****    *  @brief Swaps the contents of two iterators.
 110:C:/Program Files/mingw-w64/x86_64-8.1.0-win32-seh-rt_v6-rev0/mingw64/lib/gcc/x86_64-w64-mingw32/8.1.0/include/c++/bits\stl_algobase.h ****    *  @ingroup mutating_algorithms
 111:C:/Program Files/mingw-w64/x86_64-8.1.0-win32-seh-rt_v6-rev0/mingw64/lib/gcc/x86_64-w64-mingw32/8.1.0/include/c++/bits\stl_algobase.h ****    *  @param  __a  An iterator.
 112:C:/Program Files/mingw-w64/x86_64-8.1.0-win32-seh-rt_v6-rev0/mingw64/lib/gcc/x86_64-w64-mingw32/8.1.0/include/c++/bits\stl_algobase.h ****    *  @param  __b  Another iterator.
 113:C:/Program Files/mingw-w64/x86_64-8.1.0-win32-seh-rt_v6-rev0/mingw64/lib/gcc/x86_64-w64-mingw32/8.1.0/include/c++/bits\stl_algobase.h ****    *  @return   Nothing.
 114:C:/Program Files/mingw-w64/x86_64-8.1.0-win32-seh-rt_v6-rev0/mingw64/lib/gcc/x86_64-w64-mingw32/8.1.0/include/c++/bits\stl_algobase.h ****    *
 115:C:/Program Files/mingw-w64/x86_64-8.1.0-win32-seh-rt_v6-rev0/mingw64/lib/gcc/x86_64-w64-mingw32/8.1.0/include/c++/bits\stl_algobase.h ****    *  This function swaps the values pointed to by two iterators, not the
 116:C:/Program Files/mingw-w64/x86_64-8.1.0-win32-seh-rt_v6-rev0/mingw64/lib/gcc/x86_64-w64-mingw32/8.1.0/include/c++/bits\stl_algobase.h ****    *  iterators themselves.
 117:C:/Program Files/mingw-w64/x86_64-8.1.0-win32-seh-rt_v6-rev0/mingw64/lib/gcc/x86_64-w64-mingw32/8.1.0/include/c++/bits\stl_algobase.h ****   */
 118:C:/Program Files/mingw-w64/x86_64-8.1.0-win32-seh-rt_v6-rev0/mingw64/lib/gcc/x86_64-w64-mingw32/8.1.0/include/c++/bits\stl_algobase.h ****   template<typename _ForwardIterator1, typename _ForwardIterator2>
 119:C:/Program Files/mingw-w64/x86_64-8.1.0-win32-seh-rt_v6-rev0/mingw64/lib/gcc/x86_64-w64-mingw32/8.1.0/include/c++/bits\stl_algobase.h ****     inline void
 120:C:/Program Files/mingw-w64/x86_64-8.1.0-win32-seh-rt_v6-rev0/mingw64/lib/gcc/x86_64-w64-mingw32/8.1.0/include/c++/bits\stl_algobase.h ****     iter_swap(_ForwardIterator1 __a, _ForwardIterator2 __b)
 121:C:/Program Files/mingw-w64/x86_64-8.1.0-win32-seh-rt_v6-rev0/mingw64/lib/gcc/x86_64-w64-mingw32/8.1.0/include/c++/bits\stl_algobase.h ****     {
 122:C:/Program Files/mingw-w64/x86_64-8.1.0-win32-seh-rt_v6-rev0/mingw64/lib/gcc/x86_64-w64-mingw32/8.1.0/include/c++/bits\stl_algobase.h ****       // concept requirements
 123:C:/Program Files/mingw-w64/x86_64-8.1.0-win32-seh-rt_v6-rev0/mingw64/lib/gcc/x86_64-w64-mingw32/8.1.0/include/c++/bits\stl_algobase.h ****       __glibcxx_function_requires(_Mutable_ForwardIteratorConcept<
 124:C:/Program Files/mingw-w64/x86_64-8.1.0-win32-seh-rt_v6-rev0/mingw64/lib/gcc/x86_64-w64-mingw32/8.1.0/include/c++/bits\stl_algobase.h **** 				  _ForwardIterator1>)
 125:C:/Program Files/mingw-w64/x86_64-8.1.0-win32-seh-rt_v6-rev0/mingw64/lib/gcc/x86_64-w64-mingw32/8.1.0/include/c++/bits\stl_algobase.h ****       __glibcxx_function_requires(_Mutable_ForwardIteratorConcept<
 126:C:/Program Files/mingw-w64/x86_64-8.1.0-win32-seh-rt_v6-rev0/mingw64/lib/gcc/x86_64-w64-mingw32/8.1.0/include/c++/bits\stl_algobase.h **** 				  _ForwardIterator2>)
 127:C:/Program Files/mingw-w64/x86_64-8.1.0-win32-seh-rt_v6-rev0/mingw64/lib/gcc/x86_64-w64-mingw32/8.1.0/include/c++/bits\stl_algobase.h **** 
 128:C:/Program Files/mingw-w64/x86_64-8.1.0-win32-seh-rt_v6-rev0/mingw64/lib/gcc/x86_64-w64-mingw32/8.1.0/include/c++/bits\stl_algobase.h **** #if __cplusplus < 201103L
 129:C:/Program Files/mingw-w64/x86_64-8.1.0-win32-seh-rt_v6-rev0/mingw64/lib/gcc/x86_64-w64-mingw32/8.1.0/include/c++/bits\stl_algobase.h ****       typedef typename iterator_traits<_ForwardIterator1>::value_type
 130:C:/Program Files/mingw-w64/x86_64-8.1.0-win32-seh-rt_v6-rev0/mingw64/lib/gcc/x86_64-w64-mingw32/8.1.0/include/c++/bits\stl_algobase.h **** 	_ValueType1;
 131:C:/Program Files/mingw-w64/x86_64-8.1.0-win32-seh-rt_v6-rev0/mingw64/lib/gcc/x86_64-w64-mingw32/8.1.0/include/c++/bits\stl_algobase.h ****       typedef typename iterator_traits<_ForwardIterator2>::value_type
 132:C:/Program Files/mingw-w64/x86_64-8.1.0-win32-seh-rt_v6-rev0/mingw64/lib/gcc/x86_64-w64-mingw32/8.1.0/include/c++/bits\stl_algobase.h **** 	_ValueType2;
 133:C:/Program Files/mingw-w64/x86_64-8.1.0-win32-seh-rt_v6-rev0/mingw64/lib/gcc/x86_64-w64-mingw32/8.1.0/include/c++/bits\stl_algobase.h **** 
 134:C:/Program Files/mingw-w64/x86_64-8.1.0-win32-seh-rt_v6-rev0/mingw64/lib/gcc/x86_64-w64-mingw32/8.1.0/include/c++/bits\stl_algobase.h ****       __glibcxx_function_requires(_ConvertibleConcept<_ValueType1,
 135:C:/Program Files/mingw-w64/x86_64-8.1.0-win32-seh-rt_v6-rev0/mingw64/lib/gcc/x86_64-w64-mingw32/8.1.0/include/c++/bits\stl_algobase.h **** 				  _ValueType2>)
 136:C:/Program Files/mingw-w64/x86_64-8.1.0-win32-seh-rt_v6-rev0/mingw64/lib/gcc/x86_64-w64-mingw32/8.1.0/include/c++/bits\stl_algobase.h ****       __glibcxx_function_requires(_ConvertibleConcept<_ValueType2,
 137:C:/Program Files/mingw-w64/x86_64-8.1.0-win32-seh-rt_v6-rev0/mingw64/lib/gcc/x86_64-w64-mingw32/8.1.0/include/c++/bits\stl_algobase.h **** 				  _ValueType1>)
 138:C:/Program Files/mingw-w64/x86_64-8.1.0-win32-seh-rt_v6-rev0/mingw64/lib/gcc/x86_64-w64-mingw32/8.1.0/include/c++/bits\stl_algobase.h **** 
 139:C:/Program Files/mingw-w64/x86_64-8.1.0-win32-seh-rt_v6-rev0/mingw64/lib/gcc/x86_64-w64-mingw32/8.1.0/include/c++/bits\stl_algobase.h ****       typedef typename iterator_traits<_ForwardIterator1>::reference
 140:C:/Program Files/mingw-w64/x86_64-8.1.0-win32-seh-rt_v6-rev0/mingw64/lib/gcc/x86_64-w64-mingw32/8.1.0/include/c++/bits\stl_algobase.h **** 	_ReferenceType1;
 141:C:/Program Files/mingw-w64/x86_64-8.1.0-win32-seh-rt_v6-rev0/mingw64/lib/gcc/x86_64-w64-mingw32/8.1.0/include/c++/bits\stl_algobase.h ****       typedef typename iterator_traits<_ForwardIterator2>::reference
 142:C:/Program Files/mingw-w64/x86_64-8.1.0-win32-seh-rt_v6-rev0/mingw64/lib/gcc/x86_64-w64-mingw32/8.1.0/include/c++/bits\stl_algobase.h **** 	_ReferenceType2;
 143:C:/Program Files/mingw-w64/x86_64-8.1.0-win32-seh-rt_v6-rev0/mingw64/lib/gcc/x86_64-w64-mingw32/8.1.0/include/c++/bits\stl_algobase.h ****       std::__iter_swap<__are_same<_ValueType1, _ValueType2>::__value
 144:C:/Program Files/mingw-w64/x86_64-8.1.0-win32-seh-rt_v6-rev0/mingw64/lib/gcc/x86_64-w64-mingw32/8.1.0/include/c++/bits\stl_algobase.h **** 	&& __are_same<_ValueType1&, _ReferenceType1>::__value
 145:C:/Program Files/mingw-w64/x86_64-8.1.0-win32-seh-rt_v6-rev0/mingw64/lib/gcc/x86_64-w64-mingw32/8.1.0/include/c++/bits\stl_algobase.h **** 	&& __are_same<_ValueType2&, _ReferenceType2>::__value>::
 146:C:/Program Files/mingw-w64/x86_64-8.1.0-win32-seh-rt_v6-rev0/mingw64/lib/gcc/x86_64-w64-mingw32/8.1.0/include/c++/bits\stl_algobase.h **** 	iter_swap(__a, __b);
 147:C:/Program Files/mingw-w64/x86_64-8.1.0-win32-seh-rt_v6-rev0/mingw64/lib/gcc/x86_64-w64-mingw32/8.1.0/include/c++/bits\stl_algobase.h **** #else
 148:C:/Program Files/mingw-w64/x86_64-8.1.0-win32-seh-rt_v6-rev0/mingw64/lib/gcc/x86_64-w64-mingw32/8.1.0/include/c++/bits\stl_algobase.h ****       swap(*__a, *__b);
 149:C:/Program Files/mingw-w64/x86_64-8.1.0-win32-seh-rt_v6-rev0/mingw64/lib/gcc/x86_64-w64-mingw32/8.1.0/include/c++/bits\stl_algobase.h **** #endif
 150:C:/Program Files/mingw-w64/x86_64-8.1.0-win32-seh-rt_v6-rev0/mingw64/lib/gcc/x86_64-w64-mingw32/8.1.0/include/c++/bits\stl_algobase.h ****     }
 151:C:/Program Files/mingw-w64/x86_64-8.1.0-win32-seh-rt_v6-rev0/mingw64/lib/gcc/x86_64-w64-mingw32/8.1.0/include/c++/bits\stl_algobase.h **** 
 152:C:/Program Files/mingw-w64/x86_64-8.1.0-win32-seh-rt_v6-rev0/mingw64/lib/gcc/x86_64-w64-mingw32/8.1.0/include/c++/bits\stl_algobase.h ****   /**
 153:C:/Program Files/mingw-w64/x86_64-8.1.0-win32-seh-rt_v6-rev0/mingw64/lib/gcc/x86_64-w64-mingw32/8.1.0/include/c++/bits\stl_algobase.h ****    *  @brief Swap the elements of two sequences.
 154:C:/Program Files/mingw-w64/x86_64-8.1.0-win32-seh-rt_v6-rev0/mingw64/lib/gcc/x86_64-w64-mingw32/8.1.0/include/c++/bits\stl_algobase.h ****    *  @ingroup mutating_algorithms
 155:C:/Program Files/mingw-w64/x86_64-8.1.0-win32-seh-rt_v6-rev0/mingw64/lib/gcc/x86_64-w64-mingw32/8.1.0/include/c++/bits\stl_algobase.h ****    *  @param  __first1  A forward iterator.
 156:C:/Program Files/mingw-w64/x86_64-8.1.0-win32-seh-rt_v6-rev0/mingw64/lib/gcc/x86_64-w64-mingw32/8.1.0/include/c++/bits\stl_algobase.h ****    *  @param  __last1   A forward iterator.
 157:C:/Program Files/mingw-w64/x86_64-8.1.0-win32-seh-rt_v6-rev0/mingw64/lib/gcc/x86_64-w64-mingw32/8.1.0/include/c++/bits\stl_algobase.h ****    *  @param  __first2  A forward iterator.
 158:C:/Program Files/mingw-w64/x86_64-8.1.0-win32-seh-rt_v6-rev0/mingw64/lib/gcc/x86_64-w64-mingw32/8.1.0/include/c++/bits\stl_algobase.h ****    *  @return   An iterator equal to @p first2+(last1-first1).
 159:C:/Program Files/mingw-w64/x86_64-8.1.0-win32-seh-rt_v6-rev0/mingw64/lib/gcc/x86_64-w64-mingw32/8.1.0/include/c++/bits\stl_algobase.h ****    *
 160:C:/Program Files/mingw-w64/x86_64-8.1.0-win32-seh-rt_v6-rev0/mingw64/lib/gcc/x86_64-w64-mingw32/8.1.0/include/c++/bits\stl_algobase.h ****    *  Swaps each element in the range @p [first1,last1) with the
 161:C:/Program Files/mingw-w64/x86_64-8.1.0-win32-seh-rt_v6-rev0/mingw64/lib/gcc/x86_64-w64-mingw32/8.1.0/include/c++/bits\stl_algobase.h ****    *  corresponding element in the range @p [first2,(last1-first1)).
 162:C:/Program Files/mingw-w64/x86_64-8.1.0-win32-seh-rt_v6-rev0/mingw64/lib/gcc/x86_64-w64-mingw32/8.1.0/include/c++/bits\stl_algobase.h ****    *  The ranges must not overlap.
 163:C:/Program Files/mingw-w64/x86_64-8.1.0-win32-seh-rt_v6-rev0/mingw64/lib/gcc/x86_64-w64-mingw32/8.1.0/include/c++/bits\stl_algobase.h ****   */
 164:C:/Program Files/mingw-w64/x86_64-8.1.0-win32-seh-rt_v6-rev0/mingw64/lib/gcc/x86_64-w64-mingw32/8.1.0/include/c++/bits\stl_algobase.h ****   template<typename _ForwardIterator1, typename _ForwardIterator2>
 165:C:/Program Files/mingw-w64/x86_64-8.1.0-win32-seh-rt_v6-rev0/mingw64/lib/gcc/x86_64-w64-mingw32/8.1.0/include/c++/bits\stl_algobase.h ****     _ForwardIterator2
 166:C:/Program Files/mingw-w64/x86_64-8.1.0-win32-seh-rt_v6-rev0/mingw64/lib/gcc/x86_64-w64-mingw32/8.1.0/include/c++/bits\stl_algobase.h ****     swap_ranges(_ForwardIterator1 __first1, _ForwardIterator1 __last1,
 167:C:/Program Files/mingw-w64/x86_64-8.1.0-win32-seh-rt_v6-rev0/mingw64/lib/gcc/x86_64-w64-mingw32/8.1.0/include/c++/bits\stl_algobase.h **** 		_ForwardIterator2 __first2)
 168:C:/Program Files/mingw-w64/x86_64-8.1.0-win32-seh-rt_v6-rev0/mingw64/lib/gcc/x86_64-w64-mingw32/8.1.0/include/c++/bits\stl_algobase.h ****     {
 169:C:/Program Files/mingw-w64/x86_64-8.1.0-win32-seh-rt_v6-rev0/mingw64/lib/gcc/x86_64-w64-mingw32/8.1.0/include/c++/bits\stl_algobase.h ****       // concept requirements
 170:C:/Program Files/mingw-w64/x86_64-8.1.0-win32-seh-rt_v6-rev0/mingw64/lib/gcc/x86_64-w64-mingw32/8.1.0/include/c++/bits\stl_algobase.h ****       __glibcxx_function_requires(_Mutable_ForwardIteratorConcept<
 171:C:/Program Files/mingw-w64/x86_64-8.1.0-win32-seh-rt_v6-rev0/mingw64/lib/gcc/x86_64-w64-mingw32/8.1.0/include/c++/bits\stl_algobase.h **** 				  _ForwardIterator1>)
 172:C:/Program Files/mingw-w64/x86_64-8.1.0-win32-seh-rt_v6-rev0/mingw64/lib/gcc/x86_64-w64-mingw32/8.1.0/include/c++/bits\stl_algobase.h ****       __glibcxx_function_requires(_Mutable_ForwardIteratorConcept<
 173:C:/Program Files/mingw-w64/x86_64-8.1.0-win32-seh-rt_v6-rev0/mingw64/lib/gcc/x86_64-w64-mingw32/8.1.0/include/c++/bits\stl_algobase.h **** 				  _ForwardIterator2>)
 174:C:/Program Files/mingw-w64/x86_64-8.1.0-win32-seh-rt_v6-rev0/mingw64/lib/gcc/x86_64-w64-mingw32/8.1.0/include/c++/bits\stl_algobase.h ****       __glibcxx_requires_valid_range(__first1, __last1);
 175:C:/Program Files/mingw-w64/x86_64-8.1.0-win32-seh-rt_v6-rev0/mingw64/lib/gcc/x86_64-w64-mingw32/8.1.0/include/c++/bits\stl_algobase.h **** 
 176:C:/Program Files/mingw-w64/x86_64-8.1.0-win32-seh-rt_v6-rev0/mingw64/lib/gcc/x86_64-w64-mingw32/8.1.0/include/c++/bits\stl_algobase.h ****       for (; __first1 != __last1; ++__first1, (void)++__first2)
 177:C:/Program Files/mingw-w64/x86_64-8.1.0-win32-seh-rt_v6-rev0/mingw64/lib/gcc/x86_64-w64-mingw32/8.1.0/include/c++/bits\stl_algobase.h **** 	std::iter_swap(__first1, __first2);
 178:C:/Program Files/mingw-w64/x86_64-8.1.0-win32-seh-rt_v6-rev0/mingw64/lib/gcc/x86_64-w64-mingw32/8.1.0/include/c++/bits\stl_algobase.h ****       return __first2;
 179:C:/Program Files/mingw-w64/x86_64-8.1.0-win32-seh-rt_v6-rev0/mingw64/lib/gcc/x86_64-w64-mingw32/8.1.0/include/c++/bits\stl_algobase.h ****     }
 180:C:/Program Files/mingw-w64/x86_64-8.1.0-win32-seh-rt_v6-rev0/mingw64/lib/gcc/x86_64-w64-mingw32/8.1.0/include/c++/bits\stl_algobase.h **** 
 181:C:/Program Files/mingw-w64/x86_64-8.1.0-win32-seh-rt_v6-rev0/mingw64/lib/gcc/x86_64-w64-mingw32/8.1.0/include/c++/bits\stl_algobase.h ****   /**
 182:C:/Program Files/mingw-w64/x86_64-8.1.0-win32-seh-rt_v6-rev0/mingw64/lib/gcc/x86_64-w64-mingw32/8.1.0/include/c++/bits\stl_algobase.h ****    *  @brief This does what you think it does.
 183:C:/Program Files/mingw-w64/x86_64-8.1.0-win32-seh-rt_v6-rev0/mingw64/lib/gcc/x86_64-w64-mingw32/8.1.0/include/c++/bits\stl_algobase.h ****    *  @ingroup sorting_algorithms
 184:C:/Program Files/mingw-w64/x86_64-8.1.0-win32-seh-rt_v6-rev0/mingw64/lib/gcc/x86_64-w64-mingw32/8.1.0/include/c++/bits\stl_algobase.h ****    *  @param  __a  A thing of arbitrary type.
 185:C:/Program Files/mingw-w64/x86_64-8.1.0-win32-seh-rt_v6-rev0/mingw64/lib/gcc/x86_64-w64-mingw32/8.1.0/include/c++/bits\stl_algobase.h ****    *  @param  __b  Another thing of arbitrary type.
 186:C:/Program Files/mingw-w64/x86_64-8.1.0-win32-seh-rt_v6-rev0/mingw64/lib/gcc/x86_64-w64-mingw32/8.1.0/include/c++/bits\stl_algobase.h ****    *  @return   The lesser of the parameters.
 187:C:/Program Files/mingw-w64/x86_64-8.1.0-win32-seh-rt_v6-rev0/mingw64/lib/gcc/x86_64-w64-mingw32/8.1.0/include/c++/bits\stl_algobase.h ****    *
 188:C:/Program Files/mingw-w64/x86_64-8.1.0-win32-seh-rt_v6-rev0/mingw64/lib/gcc/x86_64-w64-mingw32/8.1.0/include/c++/bits\stl_algobase.h ****    *  This is the simple classic generic implementation.  It will work on
 189:C:/Program Files/mingw-w64/x86_64-8.1.0-win32-seh-rt_v6-rev0/mingw64/lib/gcc/x86_64-w64-mingw32/8.1.0/include/c++/bits\stl_algobase.h ****    *  temporary expressions, since they are only evaluated once, unlike a
 190:C:/Program Files/mingw-w64/x86_64-8.1.0-win32-seh-rt_v6-rev0/mingw64/lib/gcc/x86_64-w64-mingw32/8.1.0/include/c++/bits\stl_algobase.h ****    *  preprocessor macro.
 191:C:/Program Files/mingw-w64/x86_64-8.1.0-win32-seh-rt_v6-rev0/mingw64/lib/gcc/x86_64-w64-mingw32/8.1.0/include/c++/bits\stl_algobase.h ****   */
 192:C:/Program Files/mingw-w64/x86_64-8.1.0-win32-seh-rt_v6-rev0/mingw64/lib/gcc/x86_64-w64-mingw32/8.1.0/include/c++/bits\stl_algobase.h ****   template<typename _Tp>
 193:C:/Program Files/mingw-w64/x86_64-8.1.0-win32-seh-rt_v6-rev0/mingw64/lib/gcc/x86_64-w64-mingw32/8.1.0/include/c++/bits\stl_algobase.h ****     _GLIBCXX14_CONSTEXPR
 194:C:/Program Files/mingw-w64/x86_64-8.1.0-win32-seh-rt_v6-rev0/mingw64/lib/gcc/x86_64-w64-mingw32/8.1.0/include/c++/bits\stl_algobase.h ****     inline const _Tp&
 195:C:/Program Files/mingw-w64/x86_64-8.1.0-win32-seh-rt_v6-rev0/mingw64/lib/gcc/x86_64-w64-mingw32/8.1.0/include/c++/bits\stl_algobase.h ****     min(const _Tp& __a, const _Tp& __b)
 196:C:/Program Files/mingw-w64/x86_64-8.1.0-win32-seh-rt_v6-rev0/mingw64/lib/gcc/x86_64-w64-mingw32/8.1.0/include/c++/bits\stl_algobase.h ****     {
 197:C:/Program Files/mingw-w64/x86_64-8.1.0-win32-seh-rt_v6-rev0/mingw64/lib/gcc/x86_64-w64-mingw32/8.1.0/include/c++/bits\stl_algobase.h ****       // concept requirements
 198:C:/Program Files/mingw-w64/x86_64-8.1.0-win32-seh-rt_v6-rev0/mingw64/lib/gcc/x86_64-w64-mingw32/8.1.0/include/c++/bits\stl_algobase.h ****       __glibcxx_function_requires(_LessThanComparableConcept<_Tp>)
 199:C:/Program Files/mingw-w64/x86_64-8.1.0-win32-seh-rt_v6-rev0/mingw64/lib/gcc/x86_64-w64-mingw32/8.1.0/include/c++/bits\stl_algobase.h ****       //return __b < __a ? __b : __a;
 200:C:/Program Files/mingw-w64/x86_64-8.1.0-win32-seh-rt_v6-rev0/mingw64/lib/gcc/x86_64-w64-mingw32/8.1.0/include/c++/bits\stl_algobase.h ****       if (__b < __a)
 201:C:/Program Files/mingw-w64/x86_64-8.1.0-win32-seh-rt_v6-rev0/mingw64/lib/gcc/x86_64-w64-mingw32/8.1.0/include/c++/bits\stl_algobase.h **** 	return __b;
 202:C:/Program Files/mingw-w64/x86_64-8.1.0-win32-seh-rt_v6-rev0/mingw64/lib/gcc/x86_64-w64-mingw32/8.1.0/include/c++/bits\stl_algobase.h ****       return __a;
 203:C:/Program Files/mingw-w64/x86_64-8.1.0-win32-seh-rt_v6-rev0/mingw64/lib/gcc/x86_64-w64-mingw32/8.1.0/include/c++/bits\stl_algobase.h ****     }
 204:C:/Program Files/mingw-w64/x86_64-8.1.0-win32-seh-rt_v6-rev0/mingw64/lib/gcc/x86_64-w64-mingw32/8.1.0/include/c++/bits\stl_algobase.h **** 
 205:C:/Program Files/mingw-w64/x86_64-8.1.0-win32-seh-rt_v6-rev0/mingw64/lib/gcc/x86_64-w64-mingw32/8.1.0/include/c++/bits\stl_algobase.h ****   /**
 206:C:/Program Files/mingw-w64/x86_64-8.1.0-win32-seh-rt_v6-rev0/mingw64/lib/gcc/x86_64-w64-mingw32/8.1.0/include/c++/bits\stl_algobase.h ****    *  @brief This does what you think it does.
 207:C:/Program Files/mingw-w64/x86_64-8.1.0-win32-seh-rt_v6-rev0/mingw64/lib/gcc/x86_64-w64-mingw32/8.1.0/include/c++/bits\stl_algobase.h ****    *  @ingroup sorting_algorithms
 208:C:/Program Files/mingw-w64/x86_64-8.1.0-win32-seh-rt_v6-rev0/mingw64/lib/gcc/x86_64-w64-mingw32/8.1.0/include/c++/bits\stl_algobase.h ****    *  @param  __a  A thing of arbitrary type.
 209:C:/Program Files/mingw-w64/x86_64-8.1.0-win32-seh-rt_v6-rev0/mingw64/lib/gcc/x86_64-w64-mingw32/8.1.0/include/c++/bits\stl_algobase.h ****    *  @param  __b  Another thing of arbitrary type.
 210:C:/Program Files/mingw-w64/x86_64-8.1.0-win32-seh-rt_v6-rev0/mingw64/lib/gcc/x86_64-w64-mingw32/8.1.0/include/c++/bits\stl_algobase.h ****    *  @return   The greater of the parameters.
 211:C:/Program Files/mingw-w64/x86_64-8.1.0-win32-seh-rt_v6-rev0/mingw64/lib/gcc/x86_64-w64-mingw32/8.1.0/include/c++/bits\stl_algobase.h ****    *
 212:C:/Program Files/mingw-w64/x86_64-8.1.0-win32-seh-rt_v6-rev0/mingw64/lib/gcc/x86_64-w64-mingw32/8.1.0/include/c++/bits\stl_algobase.h ****    *  This is the simple classic generic implementation.  It will work on
 213:C:/Program Files/mingw-w64/x86_64-8.1.0-win32-seh-rt_v6-rev0/mingw64/lib/gcc/x86_64-w64-mingw32/8.1.0/include/c++/bits\stl_algobase.h ****    *  temporary expressions, since they are only evaluated once, unlike a
 214:C:/Program Files/mingw-w64/x86_64-8.1.0-win32-seh-rt_v6-rev0/mingw64/lib/gcc/x86_64-w64-mingw32/8.1.0/include/c++/bits\stl_algobase.h ****    *  preprocessor macro.
 215:C:/Program Files/mingw-w64/x86_64-8.1.0-win32-seh-rt_v6-rev0/mingw64/lib/gcc/x86_64-w64-mingw32/8.1.0/include/c++/bits\stl_algobase.h ****   */
 216:C:/Program Files/mingw-w64/x86_64-8.1.0-win32-seh-rt_v6-rev0/mingw64/lib/gcc/x86_64-w64-mingw32/8.1.0/include/c++/bits\stl_algobase.h ****   template<typename _Tp>
 217:C:/Program Files/mingw-w64/x86_64-8.1.0-win32-seh-rt_v6-rev0/mingw64/lib/gcc/x86_64-w64-mingw32/8.1.0/include/c++/bits\stl_algobase.h ****     _GLIBCXX14_CONSTEXPR
 218:C:/Program Files/mingw-w64/x86_64-8.1.0-win32-seh-rt_v6-rev0/mingw64/lib/gcc/x86_64-w64-mingw32/8.1.0/include/c++/bits\stl_algobase.h ****     inline const _Tp&
 219:C:/Program Files/mingw-w64/x86_64-8.1.0-win32-seh-rt_v6-rev0/mingw64/lib/gcc/x86_64-w64-mingw32/8.1.0/include/c++/bits\stl_algobase.h ****     max(const _Tp& __a, const _Tp& __b)
 256              		.loc 3 219 5
 257              		.cfi_startproc
 258 0000 55       		pushq	%rbp
 259              		.seh_pushreg	%rbp
 260              		.cfi_def_cfa_offset 16
 261              		.cfi_offset 6, -16
 262 0001 4889E5   		movq	%rsp, %rbp
 263              		.seh_setframe	%rbp, 0
 264              		.cfi_def_cfa_register 6
 265              		.seh_endprologue
 266 0004 48894D10 		movq	%rcx, 16(%rbp)
 267 0008 48895518 		movq	%rdx, 24(%rbp)
 220:C:/Program Files/mingw-w64/x86_64-8.1.0-win32-seh-rt_v6-rev0/mingw64/lib/gcc/x86_64-w64-mingw32/8.1.0/include/c++/bits\stl_algobase.h ****     {
 221:C:/Program Files/mingw-w64/x86_64-8.1.0-win32-seh-rt_v6-rev0/mingw64/lib/gcc/x86_64-w64-mingw32/8.1.0/include/c++/bits\stl_algobase.h ****       // concept requirements
 222:C:/Program Files/mingw-w64/x86_64-8.1.0-win32-seh-rt_v6-rev0/mingw64/lib/gcc/x86_64-w64-mingw32/8.1.0/include/c++/bits\stl_algobase.h ****       __glibcxx_function_requires(_LessThanComparableConcept<_Tp>)
 223:C:/Program Files/mingw-w64/x86_64-8.1.0-win32-seh-rt_v6-rev0/mingw64/lib/gcc/x86_64-w64-mingw32/8.1.0/include/c++/bits\stl_algobase.h ****       //return  __a < __b ? __b : __a;
 224:C:/Program Files/mingw-w64/x86_64-8.1.0-win32-seh-rt_v6-rev0/mingw64/lib/gcc/x86_64-w64-mingw32/8.1.0/include/c++/bits\stl_algobase.h ****       if (__a < __b)
 268              		.loc 3 224 15
 269 000c 488B4510 		movq	16(%rbp), %rax
 270 0010 8B10     		movl	(%rax), %edx
 271 0012 488B4518 		movq	24(%rbp), %rax
 272 0016 8B00     		movl	(%rax), %eax
 273              		.loc 3 224 7
 274 0018 39C2     		cmpl	%eax, %edx
 275 001a 7D06     		jge	.L12
 225:C:/Program Files/mingw-w64/x86_64-8.1.0-win32-seh-rt_v6-rev0/mingw64/lib/gcc/x86_64-w64-mingw32/8.1.0/include/c++/bits\stl_algobase.h **** 	return __b;
 276              		.loc 3 225 9
 277 001c 488B4518 		movq	24(%rbp), %rax
 278 0020 EB04     		jmp	.L13
 279              	.L12:
 226:C:/Program Files/mingw-w64/x86_64-8.1.0-win32-seh-rt_v6-rev0/mingw64/lib/gcc/x86_64-w64-mingw32/8.1.0/include/c++/bits\stl_algobase.h ****       return __a;
 280              		.loc 3 226 14
 281 0022 488B4510 		movq	16(%rbp), %rax
 282              	.L13:
 227:C:/Program Files/mingw-w64/x86_64-8.1.0-win32-seh-rt_v6-rev0/mingw64/lib/gcc/x86_64-w64-mingw32/8.1.0/include/c++/bits\stl_algobase.h ****     }
 283              		.loc 3 227 5
 284 0026 5D       		popq	%rbp
 285              		.cfi_restore 6
 286              		.cfi_def_cfa 7, 8
 287 0027 C3       		ret
 288              		.cfi_endproc
 289              	.LFE519:
 290              		.seh_endproc
 291 0028 90909090 		.text
 291      90909090 
 292              	.Letext0:
 293              		.file 4 "C:/Program Files/mingw-w64/x86_64-8.1.0-win32-seh-rt_v6-rev0/mingw64/lib/gcc/x86_64-w64-m
 294              		.file 5 "C:/Program Files/mingw-w64/x86_64-8.1.0-win32-seh-rt_v6-rev0/mingw64/lib/gcc/x86_64-w64-m
 295              		.file 6 "C:/Program Files/mingw-w64/x86_64-8.1.0-win32-seh-rt_v6-rev0/mingw64/lib/gcc/x86_64-w64-m
 296              		.file 7 "C:/Program Files/mingw-w64/x86_64-8.1.0-win32-seh-rt_v6-rev0/mingw64/lib/gcc/x86_64-w64-m
 297              		.file 8 "C:/Program Files/mingw-w64/x86_64-8.1.0-win32-seh-rt_v6-rev0/mingw64/lib/gcc/x86_64-w64-m
 298              		.file 9 "C:/Program Files/mingw-w64/x86_64-8.1.0-win32-seh-rt_v6-rev0/mingw64/lib/gcc/x86_64-w64-m
 299              		.file 10 "C:/Program Files/mingw-w64/x86_64-8.1.0-win32-seh-rt_v6-rev0/mingw64/lib/gcc/x86_64-w64-
 300              		.file 11 "C:/Program Files/mingw-w64/x86_64-8.1.0-win32-seh-rt_v6-rev0/mingw64/lib/gcc/x86_64-w64-
 301              		.file 12 "C:/Program Files/mingw-w64/x86_64-8.1.0-win32-seh-rt_v6-rev0/mingw64/x86_64-w64-mingw32/
 302              		.file 13 "C:/Program Files/mingw-w64/x86_64-8.1.0-win32-seh-rt_v6-rev0/mingw64/x86_64-w64-mingw32/
 303              		.file 14 "C:/Program Files/mingw-w64/x86_64-8.1.0-win32-seh-rt_v6-rev0/mingw64/x86_64-w64-mingw32/
 304              		.file 15 "<built-in>"
 305              		.file 16 "C:/Program Files/mingw-w64/x86_64-8.1.0-win32-seh-rt_v6-rev0/mingw64/lib/gcc/x86_64-w64-