   1              		.file	"18_12.cpp"
   2              		.text
   3              	.Ltext0:
   4              		.cfi_sections	.debug_frame
   6              		.section .rdata,"dr"
   7              	.LC0:
   8 0000 48656C6C 		.ascii "Hello,World!\0"
   8      6F2C576F 
   8      726C6421 
   8      00
   9 000d 000000   		.text
  10              		.globl	main
  12              		.seh_proc	main
  13              	main:
  14              	.LFB31:
  15              		.file 1 "18_12.cpp"
   1:18_12.cpp     **** //AC
   2:18_12.cpp     **** #include <cstdio>
   3:18_12.cpp     **** 
   4:18_12.cpp     **** int main()
   5:18_12.cpp     **** {
  16              		.loc 1 5 0
  17              		.cfi_startproc
  18 0000 55       		pushq	%rbp
  19              		.seh_pushreg	%rbp
  20              		.cfi_def_cfa_offset 16
  21              		.cfi_offset 6, -16
  22 0001 4889E5   		movq	%rsp, %rbp
  23              		.seh_setframe	%rbp, 0
  24              		.cfi_def_cfa_register 6
  25 0004 4883EC20 		subq	$32, %rsp
  26              		.seh_stackalloc	32
  27              		.seh_endprologue
  28              		.loc 1 5 0
  29 0008 E8000000 		call	__main
  29      00
   6:18_12.cpp     **** 	puts("Hello,World!");
  30              		.loc 1 6 0
  31 000d 488D0D00 		leaq	.LC0(%rip), %rcx
  31      000000
  32 0014 E8000000 		call	puts
  32      00
   7:18_12.cpp     **** 	return 0;
  33              		.loc 1 7 0
  34 0019 B8000000 		movl	$0, %eax
  34      00
   8:18_12.cpp     **** }
  35              		.loc 1 8 0
  36 001e 4883C420 		addq	$32, %rsp
  37 0022 5D       		popq	%rbp
  38              		.cfi_restore 6
  39              		.cfi_def_cfa 7, 8
  40 0023 C3       		ret
  41              		.cfi_endproc
  42              	.LFE31:
  43              		.seh_endproc
  44              	.Letext0:
  45              		.file 2 "C:/Program Files (x86)/Dev-Cpp/MinGW64/x86_64-w64-mingw32/include/stdio.h"
  46              		.file 3 "C:/Program Files (x86)/Dev-Cpp/MinGW64/x86_64-w64-mingw32/include/_mingw.h"
  47              		.file 4 "C:/Program Files (x86)/Dev-Cpp/MinGW64/lib/gcc/x86_64-w64-mingw32/4.9.2/include/c++/cstdi
  48              		.file 5 "<built-in>"